
bomb:     file format elf32-i386


Disassembly of section .init:

080486f4 <_init>:
 80486f4:	53                   	push   %ebx
 80486f5:	83 ec 08             	sub    $0x8,%esp
 80486f8:	e8 13 02 00 00       	call   8048910 <__x86.get_pc_thunk.bx>
 80486fd:	81 c3 03 39 00 00    	add    $0x3903,%ebx
 8048703:	8b 83 fc ff ff ff    	mov    -0x4(%ebx),%eax
 8048709:	85 c0                	test   %eax,%eax
 804870b:	74 05                	je     8048712 <_init+0x1e>
 804870d:	e8 be 01 00 00       	call   80488d0 <__sprintf_chk@plt+0x10>
 8048712:	83 c4 08             	add    $0x8,%esp
 8048715:	5b                   	pop    %ebx
 8048716:	c3                   	ret    

Disassembly of section .plt:

08048720 <read@plt-0x10>:
 8048720:	ff 35 04 c0 04 08    	pushl  0x804c004
 8048726:	ff 25 08 c0 04 08    	jmp    *0x804c008
 804872c:	00 00                	add    %al,(%eax)
	...

08048730 <read@plt>:
 8048730:	ff 25 0c c0 04 08    	jmp    *0x804c00c
 8048736:	68 00 00 00 00       	push   $0x0
 804873b:	e9 e0 ff ff ff       	jmp    8048720 <_init+0x2c>

08048740 <fflush@plt>:
 8048740:	ff 25 10 c0 04 08    	jmp    *0x804c010
 8048746:	68 08 00 00 00       	push   $0x8
 804874b:	e9 d0 ff ff ff       	jmp    8048720 <_init+0x2c>

08048750 <fgets@plt>:
 8048750:	ff 25 14 c0 04 08    	jmp    *0x804c014
 8048756:	68 10 00 00 00       	push   $0x10
 804875b:	e9 c0 ff ff ff       	jmp    8048720 <_init+0x2c>

08048760 <signal@plt>:
 8048760:	ff 25 18 c0 04 08    	jmp    *0x804c018
 8048766:	68 18 00 00 00       	push   $0x18
 804876b:	e9 b0 ff ff ff       	jmp    8048720 <_init+0x2c>

08048770 <sleep@plt>:
 8048770:	ff 25 1c c0 04 08    	jmp    *0x804c01c
 8048776:	68 20 00 00 00       	push   $0x20
 804877b:	e9 a0 ff ff ff       	jmp    8048720 <_init+0x2c>

08048780 <alarm@plt>:
 8048780:	ff 25 20 c0 04 08    	jmp    *0x804c020
 8048786:	68 28 00 00 00       	push   $0x28
 804878b:	e9 90 ff ff ff       	jmp    8048720 <_init+0x2c>

08048790 <__stack_chk_fail@plt>:
 8048790:	ff 25 24 c0 04 08    	jmp    *0x804c024
 8048796:	68 30 00 00 00       	push   $0x30
 804879b:	e9 80 ff ff ff       	jmp    8048720 <_init+0x2c>

080487a0 <strcpy@plt>:
 80487a0:	ff 25 28 c0 04 08    	jmp    *0x804c028
 80487a6:	68 38 00 00 00       	push   $0x38
 80487ab:	e9 70 ff ff ff       	jmp    8048720 <_init+0x2c>

080487b0 <getenv@plt>:
 80487b0:	ff 25 2c c0 04 08    	jmp    *0x804c02c
 80487b6:	68 40 00 00 00       	push   $0x40
 80487bb:	e9 60 ff ff ff       	jmp    8048720 <_init+0x2c>

080487c0 <puts@plt>:
 80487c0:	ff 25 30 c0 04 08    	jmp    *0x804c030
 80487c6:	68 48 00 00 00       	push   $0x48
 80487cb:	e9 50 ff ff ff       	jmp    8048720 <_init+0x2c>

080487d0 <__memmove_chk@plt>:
 80487d0:	ff 25 34 c0 04 08    	jmp    *0x804c034
 80487d6:	68 50 00 00 00       	push   $0x50
 80487db:	e9 40 ff ff ff       	jmp    8048720 <_init+0x2c>

080487e0 <exit@plt>:
 80487e0:	ff 25 38 c0 04 08    	jmp    *0x804c038
 80487e6:	68 58 00 00 00       	push   $0x58
 80487eb:	e9 30 ff ff ff       	jmp    8048720 <_init+0x2c>

080487f0 <__libc_start_main@plt>:
 80487f0:	ff 25 3c c0 04 08    	jmp    *0x804c03c
 80487f6:	68 60 00 00 00       	push   $0x60
 80487fb:	e9 20 ff ff ff       	jmp    8048720 <_init+0x2c>

08048800 <write@plt>:
 8048800:	ff 25 40 c0 04 08    	jmp    *0x804c040
 8048806:	68 68 00 00 00       	push   $0x68
 804880b:	e9 10 ff ff ff       	jmp    8048720 <_init+0x2c>

08048810 <__isoc99_sscanf@plt>:
 8048810:	ff 25 44 c0 04 08    	jmp    *0x804c044
 8048816:	68 70 00 00 00       	push   $0x70
 804881b:	e9 00 ff ff ff       	jmp    8048720 <_init+0x2c>

08048820 <fopen@plt>:
 8048820:	ff 25 48 c0 04 08    	jmp    *0x804c048
 8048826:	68 78 00 00 00       	push   $0x78
 804882b:	e9 f0 fe ff ff       	jmp    8048720 <_init+0x2c>

08048830 <__errno_location@plt>:
 8048830:	ff 25 4c c0 04 08    	jmp    *0x804c04c
 8048836:	68 80 00 00 00       	push   $0x80
 804883b:	e9 e0 fe ff ff       	jmp    8048720 <_init+0x2c>

08048840 <__printf_chk@plt>:
 8048840:	ff 25 50 c0 04 08    	jmp    *0x804c050
 8048846:	68 88 00 00 00       	push   $0x88
 804884b:	e9 d0 fe ff ff       	jmp    8048720 <_init+0x2c>

08048850 <socket@plt>:
 8048850:	ff 25 54 c0 04 08    	jmp    *0x804c054
 8048856:	68 90 00 00 00       	push   $0x90
 804885b:	e9 c0 fe ff ff       	jmp    8048720 <_init+0x2c>

08048860 <__fprintf_chk@plt>:
 8048860:	ff 25 58 c0 04 08    	jmp    *0x804c058
 8048866:	68 98 00 00 00       	push   $0x98
 804886b:	e9 b0 fe ff ff       	jmp    8048720 <_init+0x2c>

08048870 <gethostbyname@plt>:
 8048870:	ff 25 5c c0 04 08    	jmp    *0x804c05c
 8048876:	68 a0 00 00 00       	push   $0xa0
 804887b:	e9 a0 fe ff ff       	jmp    8048720 <_init+0x2c>

08048880 <strtol@plt>:
 8048880:	ff 25 60 c0 04 08    	jmp    *0x804c060
 8048886:	68 a8 00 00 00       	push   $0xa8
 804888b:	e9 90 fe ff ff       	jmp    8048720 <_init+0x2c>

08048890 <connect@plt>:
 8048890:	ff 25 64 c0 04 08    	jmp    *0x804c064
 8048896:	68 b0 00 00 00       	push   $0xb0
 804889b:	e9 80 fe ff ff       	jmp    8048720 <_init+0x2c>

080488a0 <close@plt>:
 80488a0:	ff 25 68 c0 04 08    	jmp    *0x804c068
 80488a6:	68 b8 00 00 00       	push   $0xb8
 80488ab:	e9 70 fe ff ff       	jmp    8048720 <_init+0x2c>

080488b0 <__ctype_b_loc@plt>:
 80488b0:	ff 25 6c c0 04 08    	jmp    *0x804c06c
 80488b6:	68 c0 00 00 00       	push   $0xc0
 80488bb:	e9 60 fe ff ff       	jmp    8048720 <_init+0x2c>

080488c0 <__sprintf_chk@plt>:
 80488c0:	ff 25 70 c0 04 08    	jmp    *0x804c070
 80488c6:	68 c8 00 00 00       	push   $0xc8
 80488cb:	e9 50 fe ff ff       	jmp    8048720 <_init+0x2c>

Disassembly of section .plt.got:

080488d0 <.plt.got>:
 80488d0:	ff 25 fc bf 04 08    	jmp    *0x804bffc
 80488d6:	66 90                	xchg   %ax,%ax

Disassembly of section .text:

080488e0 <_start>:
 80488e0:	31 ed                	xor    %ebp,%ebp
 80488e2:	5e                   	pop    %esi
 80488e3:	89 e1                	mov    %esp,%ecx
 80488e5:	83 e4 f0             	and    $0xfffffff0,%esp
 80488e8:	50                   	push   %eax
 80488e9:	54                   	push   %esp
 80488ea:	52                   	push   %edx
 80488eb:	68 70 9f 04 08       	push   $0x8049f70
 80488f0:	68 10 9f 04 08       	push   $0x8049f10
 80488f5:	51                   	push   %ecx
 80488f6:	56                   	push   %esi
 80488f7:	68 db 89 04 08       	push   $0x80489db
 80488fc:	e8 ef fe ff ff       	call   80487f0 <__libc_start_main@plt>
 8048901:	f4                   	hlt    
 8048902:	66 90                	xchg   %ax,%ax
 8048904:	66 90                	xchg   %ax,%ax
 8048906:	66 90                	xchg   %ax,%ax
 8048908:	66 90                	xchg   %ax,%ax
 804890a:	66 90                	xchg   %ax,%ax
 804890c:	66 90                	xchg   %ax,%ax
 804890e:	66 90                	xchg   %ax,%ax

08048910 <__x86.get_pc_thunk.bx>:
 8048910:	8b 1c 24             	mov    (%esp),%ebx
 8048913:	c3                   	ret    
 8048914:	66 90                	xchg   %ax,%ax
 8048916:	66 90                	xchg   %ax,%ax
 8048918:	66 90                	xchg   %ax,%ax
 804891a:	66 90                	xchg   %ax,%ax
 804891c:	66 90                	xchg   %ax,%ax
 804891e:	66 90                	xchg   %ax,%ax

08048920 <deregister_tm_clones>:
 8048920:	b8 a3 c3 04 08       	mov    $0x804c3a3,%eax
 8048925:	2d a0 c3 04 08       	sub    $0x804c3a0,%eax
 804892a:	83 f8 06             	cmp    $0x6,%eax
 804892d:	76 1a                	jbe    8048949 <deregister_tm_clones+0x29>
 804892f:	b8 00 00 00 00       	mov    $0x0,%eax
 8048934:	85 c0                	test   %eax,%eax
 8048936:	74 11                	je     8048949 <deregister_tm_clones+0x29>
 8048938:	55                   	push   %ebp
 8048939:	89 e5                	mov    %esp,%ebp
 804893b:	83 ec 14             	sub    $0x14,%esp
 804893e:	68 a0 c3 04 08       	push   $0x804c3a0
 8048943:	ff d0                	call   *%eax
 8048945:	83 c4 10             	add    $0x10,%esp
 8048948:	c9                   	leave  
 8048949:	f3 c3                	repz ret 
 804894b:	90                   	nop
 804894c:	8d 74 26 00          	lea    0x0(%esi,%eiz,1),%esi

08048950 <register_tm_clones>:
 8048950:	b8 a0 c3 04 08       	mov    $0x804c3a0,%eax
 8048955:	2d a0 c3 04 08       	sub    $0x804c3a0,%eax
 804895a:	c1 f8 02             	sar    $0x2,%eax
 804895d:	89 c2                	mov    %eax,%edx
 804895f:	c1 ea 1f             	shr    $0x1f,%edx
 8048962:	01 d0                	add    %edx,%eax
 8048964:	d1 f8                	sar    %eax
 8048966:	74 1b                	je     8048983 <register_tm_clones+0x33>
 8048968:	ba 00 00 00 00       	mov    $0x0,%edx
 804896d:	85 d2                	test   %edx,%edx
 804896f:	74 12                	je     8048983 <register_tm_clones+0x33>
 8048971:	55                   	push   %ebp
 8048972:	89 e5                	mov    %esp,%ebp
 8048974:	83 ec 10             	sub    $0x10,%esp
 8048977:	50                   	push   %eax
 8048978:	68 a0 c3 04 08       	push   $0x804c3a0
 804897d:	ff d2                	call   *%edx
 804897f:	83 c4 10             	add    $0x10,%esp
 8048982:	c9                   	leave  
 8048983:	f3 c3                	repz ret 
 8048985:	8d 74 26 00          	lea    0x0(%esi,%eiz,1),%esi
 8048989:	8d bc 27 00 00 00 00 	lea    0x0(%edi,%eiz,1),%edi

08048990 <__do_global_dtors_aux>:
 8048990:	80 3d c8 c3 04 08 00 	cmpb   $0x0,0x804c3c8
 8048997:	75 13                	jne    80489ac <__do_global_dtors_aux+0x1c>
 8048999:	55                   	push   %ebp
 804899a:	89 e5                	mov    %esp,%ebp
 804899c:	83 ec 08             	sub    $0x8,%esp
 804899f:	e8 7c ff ff ff       	call   8048920 <deregister_tm_clones>
 80489a4:	c6 05 c8 c3 04 08 01 	movb   $0x1,0x804c3c8
 80489ab:	c9                   	leave  
 80489ac:	f3 c3                	repz ret 
 80489ae:	66 90                	xchg   %ax,%ax

080489b0 <frame_dummy>:
 80489b0:	b8 10 bf 04 08       	mov    $0x804bf10,%eax
 80489b5:	8b 10                	mov    (%eax),%edx
 80489b7:	85 d2                	test   %edx,%edx
 80489b9:	75 05                	jne    80489c0 <frame_dummy+0x10>
 80489bb:	eb 93                	jmp    8048950 <register_tm_clones>
 80489bd:	8d 76 00             	lea    0x0(%esi),%esi
 80489c0:	ba 00 00 00 00       	mov    $0x0,%edx
 80489c5:	85 d2                	test   %edx,%edx
 80489c7:	74 f2                	je     80489bb <frame_dummy+0xb>
 80489c9:	55                   	push   %ebp
 80489ca:	89 e5                	mov    %esp,%ebp
 80489cc:	83 ec 14             	sub    $0x14,%esp
 80489cf:	50                   	push   %eax
 80489d0:	ff d2                	call   *%edx
 80489d2:	83 c4 10             	add    $0x10,%esp
 80489d5:	c9                   	leave  
 80489d6:	e9 75 ff ff ff       	jmp    8048950 <register_tm_clones>

080489db <main>:
 80489db:	8d 4c 24 04          	lea    0x4(%esp),%ecx
 80489df:	83 e4 f0             	and    $0xfffffff0,%esp
 80489e2:	ff 71 fc             	pushl  -0x4(%ecx)
 80489e5:	55                   	push   %ebp
 80489e6:	89 e5                	mov    %esp,%ebp
 80489e8:	53                   	push   %ebx
 80489e9:	51                   	push   %ecx
 80489ea:	8b 01                	mov    (%ecx),%eax
 80489ec:	8b 59 04             	mov    0x4(%ecx),%ebx
 80489ef:	83 f8 01             	cmp    $0x1,%eax
 80489f2:	75 0c                	jne    8048a00 <main+0x25>
 80489f4:	a1 c0 c3 04 08       	mov    0x804c3c0,%eax
 80489f9:	a3 d0 c3 04 08       	mov    %eax,0x804c3d0
 80489fe:	eb 5b                	jmp    8048a5b <main+0x80>
 8048a00:	83 f8 02             	cmp    $0x2,%eax
 8048a03:	75 39                	jne    8048a3e <main+0x63>
 8048a05:	83 ec 08             	sub    $0x8,%esp
 8048a08:	68 a8 9f 04 08       	push   $0x8049fa8
 8048a0d:	ff 73 04             	pushl  0x4(%ebx)
 8048a10:	e8 0b fe ff ff       	call   8048820 <fopen@plt>
 8048a15:	a3 d0 c3 04 08       	mov    %eax,0x804c3d0
 8048a1a:	83 c4 10             	add    $0x10,%esp
 8048a1d:	85 c0                	test   %eax,%eax
 8048a1f:	75 3a                	jne    8048a5b <main+0x80>
 8048a21:	ff 73 04             	pushl  0x4(%ebx)
 8048a24:	ff 33                	pushl  (%ebx)
 8048a26:	68 aa 9f 04 08       	push   $0x8049faa
 8048a2b:	6a 01                	push   $0x1
 8048a2d:	e8 0e fe ff ff       	call   8048840 <__printf_chk@plt>
 8048a32:	c7 04 24 08 00 00 00 	movl   $0x8,(%esp)
 8048a39:	e8 a2 fd ff ff       	call   80487e0 <exit@plt>
 8048a3e:	83 ec 04             	sub    $0x4,%esp
 8048a41:	ff 33                	pushl  (%ebx)
 8048a43:	68 c7 9f 04 08       	push   $0x8049fc7
 8048a48:	6a 01                	push   $0x1
 8048a4a:	e8 f1 fd ff ff       	call   8048840 <__printf_chk@plt>
 8048a4f:	c7 04 24 08 00 00 00 	movl   $0x8,(%esp)
 8048a56:	e8 85 fd ff ff       	call   80487e0 <exit@plt>
 8048a5b:	e8 c7 06 00 00       	call   8049127 <initialize_bomb>
 8048a60:	83 ec 0c             	sub    $0xc,%esp
 8048a63:	68 2c a0 04 08       	push   $0x804a02c
 8048a68:	e8 53 fd ff ff       	call   80487c0 <puts@plt>
 8048a6d:	c7 04 24 68 a0 04 08 	movl   $0x804a068,(%esp)
 8048a74:	e8 47 fd ff ff       	call   80487c0 <puts@plt>
 8048a79:	e8 9b 07 00 00       	call   8049219 <read_line>
 8048a7e:	89 04 24             	mov    %eax,(%esp)
 8048a81:	e8 ad 00 00 00       	call   8048b33 <phase_1>
 8048a86:	e8 87 08 00 00       	call   8049312 <phase_defused>
 8048a8b:	c7 04 24 94 a0 04 08 	movl   $0x804a094,(%esp)
 8048a92:	e8 29 fd ff ff       	call   80487c0 <puts@plt>
 8048a97:	e8 7d 07 00 00       	call   8049219 <read_line>
 8048a9c:	89 04 24             	mov    %eax,(%esp)
 8048a9f:	e8 b0 00 00 00       	call   8048b54 <phase_2>
 8048aa4:	e8 69 08 00 00       	call   8049312 <phase_defused>
 8048aa9:	c7 04 24 e1 9f 04 08 	movl   $0x8049fe1,(%esp)
 8048ab0:	e8 0b fd ff ff       	call   80487c0 <puts@plt>
 8048ab5:	e8 5f 07 00 00       	call   8049219 <read_line>
 8048aba:	89 04 24             	mov    %eax,(%esp)
 8048abd:	e8 f3 00 00 00       	call   8048bb5 <phase_3>
 8048ac2:	e8 4b 08 00 00       	call   8049312 <phase_defused>
 8048ac7:	c7 04 24 ff 9f 04 08 	movl   $0x8049fff,(%esp)
 8048ace:	e8 ed fc ff ff       	call   80487c0 <puts@plt>
 8048ad3:	e8 41 07 00 00       	call   8049219 <read_line>
 8048ad8:	89 04 24             	mov    %eax,(%esp)
 8048adb:	e8 9b 02 00 00       	call   8048d7b <phase_4>
 8048ae0:	e8 2d 08 00 00       	call   8049312 <phase_defused>
 8048ae5:	c7 04 24 c0 a0 04 08 	movl   $0x804a0c0,(%esp)
 8048aec:	e8 cf fc ff ff       	call   80487c0 <puts@plt>
 8048af1:	e8 23 07 00 00       	call   8049219 <read_line>
 8048af6:	89 04 24             	mov    %eax,(%esp)
 8048af9:	e8 f2 02 00 00       	call   8048df0 <phase_5>
 8048afe:	e8 0f 08 00 00       	call   8049312 <phase_defused>
 8048b03:	c7 04 24 0e a0 04 08 	movl   $0x804a00e,(%esp)
 8048b0a:	e8 b1 fc ff ff       	call   80487c0 <puts@plt>
 8048b0f:	e8 05 07 00 00       	call   8049219 <read_line>
 8048b14:	89 04 24             	mov    %eax,(%esp)
 8048b17:	e8 61 03 00 00       	call   8048e7d <phase_6>
 8048b1c:	e8 f1 07 00 00       	call   8049312 <phase_defused>
 8048b21:	83 c4 10             	add    $0x10,%esp
 8048b24:	b8 00 00 00 00       	mov    $0x0,%eax
 8048b29:	8d 65 f8             	lea    -0x8(%ebp),%esp
 8048b2c:	59                   	pop    %ecx
 8048b2d:	5b                   	pop    %ebx
 8048b2e:	5d                   	pop    %ebp
 8048b2f:	8d 61 fc             	lea    -0x4(%ecx),%esp
 8048b32:	c3                   	ret    

08048b33 <phase_1>:
 8048b33:	83 ec 14             	sub    $0x14,%esp
 8048b36:	68 e4 a0 04 08       	push   $0x804a0e4
 8048b3b:	ff 74 24 1c          	pushl  0x1c(%esp)
 8048b3f:	e8 7e 05 00 00       	call   80490c2 <strings_not_equal>
 8048b44:	83 c4 10             	add    $0x10,%esp
 8048b47:	85 c0                	test   %eax,%eax
 8048b49:	74 05                	je     8048b50 <phase_1+0x1d>
 8048b4b:	e8 69 06 00 00       	call   80491b9 <explode_bomb>
 8048b50:	83 c4 0c             	add    $0xc,%esp
 8048b53:	c3                   	ret    

08048b54 <phase_2>:
 8048b54:	53                   	push   %ebx
 8048b55:	83 ec 30             	sub    $0x30,%esp
 8048b58:	65 a1 14 00 00 00    	mov    %gs:0x14,%eax
 8048b5e:	89 44 24 24          	mov    %eax,0x24(%esp)
 8048b62:	31 c0                	xor    %eax,%eax
 8048b64:	8d 44 24 0c          	lea    0xc(%esp),%eax     
 8048b68:	50                   	push   %eax
 8048b69:	ff 74 24 3c          	pushl  0x3c(%esp)
 8048b6d:	e8 6c 06 00 00       	call   80491de <read_six_numbers>
 8048b72:	83 c4 10             	add    $0x10,%esp
 8048b75:	83 7c 24 04 00       	cmpl   $0x0,0x4(%esp)               ;先确定x0值为0
 8048b7a:	79 05                	jns    8048b81 <phase_2+0x2d>      
 8048b7c:	e8 38 06 00 00       	call   80491b9 <explode_bomb>
 8048b81:	bb 01 00 00 00       	mov    $0x1,%ebx
 8048b86:	89 d8                	mov    %ebx,%eax                    ;循环体开始
 8048b88:	03 04 9c             	add    (%esp,%ebx,4),%eax
 8048b8b:	39 44 9c 04          	cmp    %eax,0x4(%esp,%ebx,4)        ;变量值+eax值与下一个变量值进行比较
 8048b8f:	74 05                	je     8048b96 <phase_2+0x42>
 8048b91:	e8 23 06 00 00       	call   80491b9 <explode_bomb>
 8048b96:	83 c3 01             	add    $0x1,%ebx
 8048b99:	83 fb 06             	cmp    $0x6,%ebx                    ;x5+eax与x6比较后退出循环
 8048b9c:	75 e8                	jne    8048b86 <phase_2+0x32>       ;循环体结束
 8048b9e:	8b 44 24 1c          	mov    0x1c(%esp),%eax
 8048ba2:	65 33 05 14 00 00 00 	xor    %gs:0x14,%eax
 8048ba9:	74 05                	je     8048bb0 <phase_2+0x5c>
 8048bab:	e8 e0 fb ff ff       	call   8048790 <__stack_chk_fail@plt>
 8048bb0:	83 c4 28             	add    $0x28,%esp
 8048bb3:	5b                   	pop    %ebx
 8048bb4:	c3                   	ret    

08048bb5 <phase_3>:
 8048bb5:	83 ec 28             	sub    $0x28,%esp
 8048bb8:	65 a1 14 00 00 00    	mov    %gs:0x14,%eax
 8048bbe:	89 44 24 18          	mov    %eax,0x18(%esp)
 8048bc2:	31 c0                	xor    %eax,%eax
 8048bc4:	8d 44 24 14          	lea    0x14(%esp),%eax
 8048bc8:	50                   	push   %eax
 8048bc9:	8d 44 24 13          	lea    0x13(%esp),%eax
 8048bcd:	50                   	push   %eax
 8048bce:	8d 44 24 18          	lea    0x18(%esp),%eax
 8048bd2:	50                   	push   %eax
 8048bd3:	68 3e a1 04 08       	push   $0x804a13e                  ;scanf的参数为%d %c %d
 8048bd8:	ff 74 24 3c          	pushl  0x3c(%esp)
 8048bdc:	e8 2f fc ff ff       	call   8048810 <__isoc99_sscanf@plt>
 8048be1:	83 c4 20             	add    $0x20,%esp
 8048be4:	83 f8 02             	cmp    $0x2,%eax                   ;数字个数大于2
 8048be7:	7f 05                	jg     8048bee <phase_3+0x39>
 8048be9:	e8 cb 05 00 00       	call   80491b9 <explode_bomb>
 8048bee:	83 7c 24 04 07       	cmpl   $0x7,0x4(%esp)
 8048bf3:	0f 87 f9 00 00 00    	ja     8048cf2 <phase_3+0x13d>
 8048bf9:	8b 44 24 04          	mov    0x4(%esp),%eax
 8048bfd:	ff 24 85 60 a1 04 08 	jmp    *0x804a160(,%eax,4)
 8048c04:	b8 74 00 00 00       	mov    $0x74,%eax
 8048c09:	81 7c 24 08 ea 02 00 	cmpl   $0x2ea,0x8(%esp)
 8048c10:	00 
 8048c11:	0f 84 e5 00 00 00    	je     8048cfc <phase_3+0x147>
 8048c17:	e8 9d 05 00 00       	call   80491b9 <explode_bomb>
 8048c1c:	b8 74 00 00 00       	mov    $0x74,%eax
 8048c21:	e9 d6 00 00 00       	jmp    8048cfc <phase_3+0x147>
 8048c26:	b8 74 00 00 00       	mov    $0x74,%eax
 8048c2b:	81 7c 24 08 34 02 00 	cmpl   $0x234,0x8(%esp)
 8048c32:	00 
 8048c33:	0f 84 c3 00 00 00    	je     8048cfc <phase_3+0x147>
 8048c39:	e8 7b 05 00 00       	call   80491b9 <explode_bomb>
 8048c3e:	b8 74 00 00 00       	mov    $0x74,%eax
 8048c43:	e9 b4 00 00 00       	jmp    8048cfc <phase_3+0x147>
 8048c48:	b8 6d 00 00 00       	mov    $0x6d,%eax
 8048c4d:	81 7c 24 08 d5 03 00 	cmpl   $0x3d5,0x8(%esp)
 8048c54:	00 
 8048c55:	0f 84 a1 00 00 00    	je     8048cfc <phase_3+0x147>
 8048c5b:	e8 59 05 00 00       	call   80491b9 <explode_bomb>
 8048c60:	b8 6d 00 00 00       	mov    $0x6d,%eax
 8048c65:	e9 92 00 00 00       	jmp    8048cfc <phase_3+0x147>
 8048c6a:	b8 6e 00 00 00       	mov    $0x6e,%eax
 8048c6f:	83 7c 24 08 73       	cmpl   $0x73,0x8(%esp)
 8048c74:	0f 84 82 00 00 00    	je     8048cfc <phase_3+0x147>
 8048c7a:	e8 3a 05 00 00       	call   80491b9 <explode_bomb>
 8048c7f:	b8 6e 00 00 00       	mov    $0x6e,%eax
 8048c84:	eb 76                	jmp    8048cfc <phase_3+0x147>
 8048c86:	b8 6d 00 00 00       	mov    $0x6d,%eax
 8048c8b:	81 7c 24 08 d8 00 00 	cmpl   $0xd8,0x8(%esp)
 8048c92:	00 
 8048c93:	74 67                	je     8048cfc <phase_3+0x147>
 8048c95:	e8 1f 05 00 00       	call   80491b9 <explode_bomb>
 8048c9a:	b8 6d 00 00 00       	mov    $0x6d,%eax
 8048c9f:	eb 5b                	jmp    8048cfc <phase_3+0x147>
 8048ca1:	b8 63 00 00 00       	mov    $0x63,%eax
 8048ca6:	81 7c 24 08 d6 03 00 	cmpl   $0x3d6,0x8(%esp)
 8048cad:	00 
 8048cae:	74 4c                	je     8048cfc <phase_3+0x147>
 8048cb0:	e8 04 05 00 00       	call   80491b9 <explode_bomb>
 8048cb5:	b8 63 00 00 00       	mov    $0x63,%eax
 8048cba:	eb 40                	jmp    8048cfc <phase_3+0x147>
 8048cbc:	b8 71 00 00 00       	mov    $0x71,%eax
 8048cc1:	81 7c 24 08 d8 03 00 	cmpl   $0x3d8,0x8(%esp)
 8048cc8:	00 
 8048cc9:	74 31                	je     8048cfc <phase_3+0x147>
 8048ccb:	e8 e9 04 00 00       	call   80491b9 <explode_bomb>
 8048cd0:	b8 71 00 00 00       	mov    $0x71,%eax
 8048cd5:	eb 25                	jmp    8048cfc <phase_3+0x147>
 8048cd7:	b8 6b 00 00 00       	mov    $0x6b,%eax
 8048cdc:	81 7c 24 08 54 03 00 	cmpl   $0x354,0x8(%esp)
 8048ce3:	00 
 8048ce4:	74 16                	je     8048cfc <phase_3+0x147>
 8048ce6:	e8 ce 04 00 00       	call   80491b9 <explode_bomb>
 8048ceb:	b8 6b 00 00 00       	mov    $0x6b,%eax
 8048cf0:	eb 0a                	jmp    8048cfc <phase_3+0x147>
 8048cf2:	e8 c2 04 00 00       	call   80491b9 <explode_bomb>
 8048cf7:	b8 76 00 00 00       	mov    $0x76,%eax
 8048cfc:	3a 44 24 03          	cmp    0x3(%esp),%al
 8048d00:	74 05                	je     8048d07 <phase_3+0x152>
 8048d02:	e8 b2 04 00 00       	call   80491b9 <explode_bomb>
 8048d07:	8b 44 24 0c          	mov    0xc(%esp),%eax
 8048d0b:	65 33 05 14 00 00 00 	xor    %gs:0x14,%eax
 8048d12:	74 05                	je     8048d19 <phase_3+0x164>
 8048d14:	e8 77 fa ff ff       	call   8048790 <__stack_chk_fail@plt>
 8048d19:	83 c4 1c             	add    $0x1c,%esp
 8048d1c:	c3                   	ret    

08048d1d <func4>:                                                ;func4是一个二分查找的过程											
 8048d1d:	56                   	push   %esi				     ;esi相当于high,ecx相当于low
 8048d1e:	53                   	push   %ebx                  ;eax保存的是(high-low)/2,edx则是查找到的值
 8048d1f:	83 ec 04             	sub    $0x4,%esp			 ;当edx>ecx时,返回值为2eax;edx<ecx返回2eax+1;edx=ecx时返回0
 8048d22:	8b 4c 24 10          	mov    0x10(%esp),%ecx       ;根据最后得到的返回值反推即可得到查找顺序，进而推出正确数字
 8048d26:	8b 5c 24 14          	mov    0x14(%esp),%ebx
 8048d2a:	8b 74 24 18          	mov    0x18(%esp),%esi
 8048d2e:	89 f0                	mov    %esi,%eax
 8048d30:	29 d8                	sub    %ebx,%eax
 8048d32:	89 c2                	mov    %eax,%edx
 8048d34:	c1 ea 1f             	shr    $0x1f,%edx
 8048d37:	01 d0                	add    %edx,%eax
 8048d39:	d1 f8                	sar    %eax
 8048d3b:	8d 14 18             	lea    (%eax,%ebx,1),%edx
 8048d3e:	39 ca                	cmp    %ecx,%edx
 8048d40:	7e 15                	jle    8048d57 <func4+0x3a>
 8048d42:	83 ec 04             	sub    $0x4,%esp
 8048d45:	83 ea 01             	sub    $0x1,%edx
 8048d48:	52                   	push   %edx
 8048d49:	53                   	push   %ebx
 8048d4a:	51                   	push   %ecx
 8048d4b:	e8 cd ff ff ff       	call   8048d1d <func4>
 8048d50:	83 c4 10             	add    $0x10,%esp
 8048d53:	01 c0                	add    %eax,%eax
 8048d55:	eb 1e                	jmp    8048d75 <func4+0x58>
 8048d57:	b8 00 00 00 00       	mov    $0x0,%eax
 8048d5c:	39 ca                	cmp    %ecx,%edx
 8048d5e:	7d 15                	jge    8048d75 <func4+0x58>
 8048d60:	83 ec 04             	sub    $0x4,%esp
 8048d63:	56                   	push   %esi
 8048d64:	83 c2 01             	add    $0x1,%edx
 8048d67:	52                   	push   %edx
 8048d68:	51                   	push   %ecx
 8048d69:	e8 af ff ff ff       	call   8048d1d <func4>
 8048d6e:	83 c4 10             	add    $0x10,%esp
 8048d71:	8d 44 00 01          	lea    0x1(%eax,%eax,1),%eax
 8048d75:	83 c4 04             	add    $0x4,%esp
 8048d78:	5b                   	pop    %ebx
 8048d79:	5e                   	pop    %esi
 8048d7a:	c3                   	ret    

08048d7b <phase_4>:
 8048d7b:	83 ec 1c             	sub    $0x1c,%esp
 8048d7e:	65 a1 14 00 00 00    	mov    %gs:0x14,%eax
 8048d84:	89 44 24 0c          	mov    %eax,0xc(%esp)
 8048d88:	31 c0                	xor    %eax,%eax
 8048d8a:	8d 44 24 08          	lea    0x8(%esp),%eax
 8048d8e:	50                   	push   %eax
 8048d8f:	8d 44 24 08          	lea    0x8(%esp),%eax
 8048d93:	50                   	push   %eax
 8048d94:	68 cf a2 04 08       	push   $0x804a2cf
 8048d99:	ff 74 24 2c          	pushl  0x2c(%esp)
 8048d9d:	e8 6e fa ff ff       	call   8048810 <__isoc99_sscanf@plt>
 8048da2:	83 c4 10             	add    $0x10,%esp
 8048da5:	83 f8 02             	cmp    $0x2,%eax
 8048da8:	75 07                	jne    8048db1 <phase_4+0x36>
 8048daa:	83 7c 24 04 0e       	cmpl   $0xe,0x4(%esp)
 8048daf:	76 05                	jbe    8048db6 <phase_4+0x3b>
 8048db1:	e8 03 04 00 00       	call   80491b9 <explode_bomb>
 8048db6:	83 ec 04             	sub    $0x4,%esp
 8048db9:	6a 0e                	push   $0xe
 8048dbb:	6a 00                	push   $0x0
 8048dbd:	ff 74 24 10          	pushl  0x10(%esp)
 8048dc1:	e8 57 ff ff ff       	call   8048d1d <func4>
 8048dc6:	83 c4 10             	add    $0x10,%esp
 8048dc9:	83 f8 05             	cmp    $0x5,%eax
 8048dcc:	75 07                	jne    8048dd5 <phase_4+0x5a>
 8048dce:	83 7c 24 08 05       	cmpl   $0x5,0x8(%esp)
 8048dd3:	74 05                	je     8048dda <phase_4+0x5f>
 8048dd5:	e8 df 03 00 00       	call   80491b9 <explode_bomb>
 8048dda:	8b 44 24 0c          	mov    0xc(%esp),%eax
 8048dde:	65 33 05 14 00 00 00 	xor    %gs:0x14,%eax
 8048de5:	74 05                	je     8048dec <phase_4+0x71>
 8048de7:	e8 a4 f9 ff ff       	call   8048790 <__stack_chk_fail@plt>
 8048dec:	83 c4 1c             	add    $0x1c,%esp
 8048def:	c3                   	ret    

08048df0 <phase_5>:
 8048df0:	83 ec 1c             	sub    $0x1c,%esp
 8048df3:	65 a1 14 00 00 00    	mov    %gs:0x14,%eax
 8048df9:	89 44 24 0c          	mov    %eax,0xc(%esp)
 8048dfd:	31 c0                	xor    %eax,%eax
 8048dff:	8d 44 24 08          	lea    0x8(%esp),%eax
 8048e03:	50                   	push   %eax
 8048e04:	8d 44 24 08          	lea    0x8(%esp),%eax
 8048e08:	50                   	push   %eax
 8048e09:	68 cf a2 04 08       	push   $0x804a2cf
 8048e0e:	ff 74 24 2c          	pushl  0x2c(%esp)
 8048e12:	e8 f9 f9 ff ff       	call   8048810 <__isoc99_sscanf@plt>
 8048e17:	83 c4 10             	add    $0x10,%esp
 8048e1a:	83 f8 01             	cmp    $0x1,%eax
 8048e1d:	7f 05                	jg     8048e24 <phase_5+0x34>
 8048e1f:	e8 95 03 00 00       	call   80491b9 <explode_bomb>
 8048e24:	8b 44 24 04          	mov    0x4(%esp),%eax
 8048e28:	83 e0 0f             	and    $0xf,%eax
 8048e2b:	89 44 24 04          	mov    %eax,0x4(%esp)
 8048e2f:	83 f8 0f             	cmp    $0xf,%eax
 8048e32:	74 2e                	je     8048e62 <phase_5+0x72>
 8048e34:	b9 00 00 00 00       	mov    $0x0,%ecx
 8048e39:	ba 00 00 00 00       	mov    $0x0,%edx
 8048e3e:	83 c2 01             	add    $0x1,%edx
 8048e41:	8b 04 85 80 a1 04 08 	mov    0x804a180(,%eax,4),%eax
 8048e48:	01 c1                	add    %eax,%ecx
 8048e4a:	83 f8 0f             	cmp    $0xf,%eax
 8048e4d:	75 ef                	jne    8048e3e <phase_5+0x4e>
 8048e4f:	c7 44 24 04 0f 00 00 	movl   $0xf,0x4(%esp)
 8048e56:	00 
 8048e57:	83 fa 0f             	cmp    $0xf,%edx
 8048e5a:	75 06                	jne    8048e62 <phase_5+0x72>
 8048e5c:	3b 4c 24 08          	cmp    0x8(%esp),%ecx
 8048e60:	74 05                	je     8048e67 <phase_5+0x77>
 8048e62:	e8 52 03 00 00       	call   80491b9 <explode_bomb>
 8048e67:	8b 44 24 0c          	mov    0xc(%esp),%eax
 8048e6b:	65 33 05 14 00 00 00 	xor    %gs:0x14,%eax
 8048e72:	74 05                	je     8048e79 <phase_5+0x89>
 8048e74:	e8 17 f9 ff ff       	call   8048790 <__stack_chk_fail@plt>
 8048e79:	83 c4 1c             	add    $0x1c,%esp
 8048e7c:	c3                   	ret    

08048e7d <phase_6>:
 8048e7d:	56                   	push   %esi
 8048e7e:	53                   	push   %ebx
 8048e7f:	83 ec 4c             	sub    $0x4c,%esp
 8048e82:	65 a1 14 00 00 00    	mov    %gs:0x14,%eax
 8048e88:	89 44 24 44          	mov    %eax,0x44(%esp)
 8048e8c:	31 c0                	xor    %eax,%eax
 8048e8e:	8d 44 24 14          	lea    0x14(%esp),%eax
 8048e92:	50                   	push   %eax
 8048e93:	ff 74 24 5c          	pushl  0x5c(%esp)
 8048e97:	e8 42 03 00 00       	call   80491de <read_six_numbers>
 8048e9c:	83 c4 10             	add    $0x10,%esp
 8048e9f:	be 00 00 00 00       	mov    $0x0,%esi
 8048ea4:	8b 44 b4 0c          	mov    0xc(%esp,%esi,4),%eax
 8048ea8:	83 e8 01             	sub    $0x1,%eax
 8048eab:	83 f8 05             	cmp    $0x5,%eax
 8048eae:	76 05                	jbe    8048eb5 <phase_6+0x38>
 8048eb0:	e8 04 03 00 00       	call   80491b9 <explode_bomb>
 8048eb5:	83 c6 01             	add    $0x1,%esi
 8048eb8:	83 fe 06             	cmp    $0x6,%esi
 8048ebb:	74 1b                	je     8048ed8 <phase_6+0x5b>
 8048ebd:	89 f3                	mov    %esi,%ebx
 8048ebf:	8b 44 9c 0c          	mov    0xc(%esp,%ebx,4),%eax
 8048ec3:	39 44 b4 08          	cmp    %eax,0x8(%esp,%esi,4)
 8048ec7:	75 05                	jne    8048ece <phase_6+0x51>
 8048ec9:	e8 eb 02 00 00       	call   80491b9 <explode_bomb>
 8048ece:	83 c3 01             	add    $0x1,%ebx
 8048ed1:	83 fb 05             	cmp    $0x5,%ebx
 8048ed4:	7e e9                	jle    8048ebf <phase_6+0x42>
 8048ed6:	eb cc                	jmp    8048ea4 <phase_6+0x27>
 8048ed8:	8d 44 24 0c          	lea    0xc(%esp),%eax
 8048edc:	8d 5c 24 24          	lea    0x24(%esp),%ebx
 8048ee0:	b9 07 00 00 00       	mov    $0x7,%ecx
 8048ee5:	89 ca                	mov    %ecx,%edx
 8048ee7:	2b 10                	sub    (%eax),%edx
 8048ee9:	89 10                	mov    %edx,(%eax)
 8048eeb:	83 c0 04             	add    $0x4,%eax
 8048eee:	39 c3                	cmp    %eax,%ebx
 8048ef0:	75 f3                	jne    8048ee5 <phase_6+0x68>
 8048ef2:	bb 00 00 00 00       	mov    $0x0,%ebx
 8048ef7:	eb 16                	jmp    8048f0f <phase_6+0x92>
 8048ef9:	8b 52 08             	mov    0x8(%edx),%edx
 8048efc:	83 c0 01             	add    $0x1,%eax
 8048eff:	39 c8                	cmp    %ecx,%eax
 8048f01:	75 f6                	jne    8048ef9 <phase_6+0x7c>
 8048f03:	89 54 b4 24          	mov    %edx,0x24(%esp,%esi,4)
 8048f07:	83 c3 01             	add    $0x1,%ebx
 8048f0a:	83 fb 06             	cmp    $0x6,%ebx
 8048f0d:	74 17                	je     8048f26 <phase_6+0xa9>
 8048f0f:	89 de                	mov    %ebx,%esi
 8048f11:	8b 4c 9c 0c          	mov    0xc(%esp,%ebx,4),%ecx
 8048f15:	b8 01 00 00 00       	mov    $0x1,%eax
 8048f1a:	ba 3c c1 04 08       	mov    $0x804c13c,%edx
 8048f1f:	83 f9 01             	cmp    $0x1,%ecx
 8048f22:	7f d5                	jg     8048ef9 <phase_6+0x7c>
 8048f24:	eb dd                	jmp    8048f03 <phase_6+0x86>
 8048f26:	8b 5c 24 24          	mov    0x24(%esp),%ebx
 8048f2a:	8d 44 24 24          	lea    0x24(%esp),%eax
 8048f2e:	8d 74 24 38          	lea    0x38(%esp),%esi
 8048f32:	89 d9                	mov    %ebx,%ecx
 8048f34:	8b 50 04             	mov    0x4(%eax),%edx
 8048f37:	89 51 08             	mov    %edx,0x8(%ecx)
 8048f3a:	83 c0 04             	add    $0x4,%eax
 8048f3d:	89 d1                	mov    %edx,%ecx
 8048f3f:	39 c6                	cmp    %eax,%esi
 8048f41:	75 f1                	jne    8048f34 <phase_6+0xb7>
 8048f43:	c7 42 08 00 00 00 00 	movl   $0x0,0x8(%edx)
 8048f4a:	be 05 00 00 00       	mov    $0x5,%esi
 8048f4f:	8b 43 08             	mov    0x8(%ebx),%eax
 8048f52:	8b 00                	mov    (%eax),%eax
 8048f54:	39 03                	cmp    %eax,(%ebx)
 8048f56:	7d 05                	jge    8048f5d <phase_6+0xe0>
 8048f58:	e8 5c 02 00 00       	call   80491b9 <explode_bomb>
 8048f5d:	8b 5b 08             	mov    0x8(%ebx),%ebx
 8048f60:	83 ee 01             	sub    $0x1,%esi
 8048f63:	75 ea                	jne    8048f4f <phase_6+0xd2>
 8048f65:	8b 44 24 3c          	mov    0x3c(%esp),%eax
 8048f69:	65 33 05 14 00 00 00 	xor    %gs:0x14,%eax
 8048f70:	74 05                	je     8048f77 <phase_6+0xfa>
 8048f72:	e8 19 f8 ff ff       	call   8048790 <__stack_chk_fail@plt>
 8048f77:	83 c4 44             	add    $0x44,%esp
 8048f7a:	5b                   	pop    %ebx
 8048f7b:	5e                   	pop    %esi
 8048f7c:	c3                   	ret    

08048f7d <fun7>:
 8048f7d:	53                   	push   %ebx
 8048f7e:	83 ec 08             	sub    $0x8,%esp
 8048f81:	8b 54 24 10          	mov    0x10(%esp),%edx
 8048f85:	8b 4c 24 14          	mov    0x14(%esp),%ecx
 8048f89:	85 d2                	test   %edx,%edx
 8048f8b:	74 37                	je     8048fc4 <fun7+0x47>
 8048f8d:	8b 1a                	mov    (%edx),%ebx
 8048f8f:	39 cb                	cmp    %ecx,%ebx
 8048f91:	7e 13                	jle    8048fa6 <fun7+0x29>
 8048f93:	83 ec 08             	sub    $0x8,%esp
 8048f96:	51                   	push   %ecx
 8048f97:	ff 72 04             	pushl  0x4(%edx)
 8048f9a:	e8 de ff ff ff       	call   8048f7d <fun7>
 8048f9f:	83 c4 10             	add    $0x10,%esp
 8048fa2:	01 c0                	add    %eax,%eax
 8048fa4:	eb 23                	jmp    8048fc9 <fun7+0x4c>
 8048fa6:	b8 00 00 00 00       	mov    $0x0,%eax
 8048fab:	39 cb                	cmp    %ecx,%ebx
 8048fad:	74 1a                	je     8048fc9 <fun7+0x4c>
 8048faf:	83 ec 08             	sub    $0x8,%esp
 8048fb2:	51                   	push   %ecx
 8048fb3:	ff 72 08             	pushl  0x8(%edx)
 8048fb6:	e8 c2 ff ff ff       	call   8048f7d <fun7>
 8048fbb:	83 c4 10             	add    $0x10,%esp
 8048fbe:	8d 44 00 01          	lea    0x1(%eax,%eax,1),%eax
 8048fc2:	eb 05                	jmp    8048fc9 <fun7+0x4c>
 8048fc4:	b8 ff ff ff ff       	mov    $0xffffffff,%eax
 8048fc9:	83 c4 08             	add    $0x8,%esp
 8048fcc:	5b                   	pop    %ebx
 8048fcd:	c3                   	ret    

08048fce <secret_phase>:
 8048fce:	53                   	push   %ebx
 8048fcf:	83 ec 08             	sub    $0x8,%esp
 8048fd2:	e8 42 02 00 00       	call   8049219 <read_line>
 8048fd7:	83 ec 04             	sub    $0x4,%esp
 8048fda:	6a 0a                	push   $0xa
 8048fdc:	6a 00                	push   $0x0
 8048fde:	50                   	push   %eax
 8048fdf:	e8 9c f8 ff ff       	call   8048880 <strtol@plt>
 8048fe4:	89 c3                	mov    %eax,%ebx
 8048fe6:	8d 40 ff             	lea    -0x1(%eax),%eax
 8048fe9:	83 c4 10             	add    $0x10,%esp
 8048fec:	3d e8 03 00 00       	cmp    $0x3e8,%eax
 8048ff1:	76 05                	jbe    8048ff8 <secret_phase+0x2a>
 8048ff3:	e8 c1 01 00 00       	call   80491b9 <explode_bomb>
 8048ff8:	83 ec 08             	sub    $0x8,%esp
 8048ffb:	53                   	push   %ebx
 8048ffc:	68 88 c0 04 08       	push   $0x804c088
 8049001:	e8 77 ff ff ff       	call   8048f7d <fun7>
 8049006:	83 c4 10             	add    $0x10,%esp
 8049009:	83 f8 01             	cmp    $0x1,%eax
 804900c:	74 05                	je     8049013 <secret_phase+0x45>
 804900e:	e8 a6 01 00 00       	call   80491b9 <explode_bomb>
 8049013:	83 ec 0c             	sub    $0xc,%esp
 8049016:	68 18 a1 04 08       	push   $0x804a118
 804901b:	e8 a0 f7 ff ff       	call   80487c0 <puts@plt>
 8049020:	e8 ed 02 00 00       	call   8049312 <phase_defused>
 8049025:	83 c4 18             	add    $0x18,%esp
 8049028:	5b                   	pop    %ebx
 8049029:	c3                   	ret    

0804902a <sig_handler>:
 804902a:	83 ec 18             	sub    $0x18,%esp
 804902d:	68 c0 a1 04 08       	push   $0x804a1c0
 8049032:	e8 89 f7 ff ff       	call   80487c0 <puts@plt>
 8049037:	c7 04 24 03 00 00 00 	movl   $0x3,(%esp)
 804903e:	e8 2d f7 ff ff       	call   8048770 <sleep@plt>
 8049043:	83 c4 08             	add    $0x8,%esp
 8049046:	68 82 a2 04 08       	push   $0x804a282
 804904b:	6a 01                	push   $0x1
 804904d:	e8 ee f7 ff ff       	call   8048840 <__printf_chk@plt>
 8049052:	83 c4 04             	add    $0x4,%esp
 8049055:	ff 35 c4 c3 04 08    	pushl  0x804c3c4
 804905b:	e8 e0 f6 ff ff       	call   8048740 <fflush@plt>
 8049060:	c7 04 24 01 00 00 00 	movl   $0x1,(%esp)
 8049067:	e8 04 f7 ff ff       	call   8048770 <sleep@plt>
 804906c:	c7 04 24 8a a2 04 08 	movl   $0x804a28a,(%esp)
 8049073:	e8 48 f7 ff ff       	call   80487c0 <puts@plt>
 8049078:	c7 04 24 10 00 00 00 	movl   $0x10,(%esp)
 804907f:	e8 5c f7 ff ff       	call   80487e0 <exit@plt>

08049084 <invalid_phase>:
 8049084:	83 ec 10             	sub    $0x10,%esp
 8049087:	ff 74 24 14          	pushl  0x14(%esp)
 804908b:	68 92 a2 04 08       	push   $0x804a292
 8049090:	6a 01                	push   $0x1
 8049092:	e8 a9 f7 ff ff       	call   8048840 <__printf_chk@plt>
 8049097:	c7 04 24 08 00 00 00 	movl   $0x8,(%esp)
 804909e:	e8 3d f7 ff ff       	call   80487e0 <exit@plt>

080490a3 <string_length>:
 80490a3:	8b 54 24 04          	mov    0x4(%esp),%edx
 80490a7:	80 3a 00             	cmpb   $0x0,(%edx)
 80490aa:	74 10                	je     80490bc <string_length+0x19>
 80490ac:	b8 00 00 00 00       	mov    $0x0,%eax
 80490b1:	83 c0 01             	add    $0x1,%eax
 80490b4:	80 3c 02 00          	cmpb   $0x0,(%edx,%eax,1)
 80490b8:	75 f7                	jne    80490b1 <string_length+0xe>
 80490ba:	f3 c3                	repz ret 
 80490bc:	b8 00 00 00 00       	mov    $0x0,%eax
 80490c1:	c3                   	ret    

080490c2 <strings_not_equal>:
 80490c2:	57                   	push   %edi
 80490c3:	56                   	push   %esi
 80490c4:	53                   	push   %ebx
 80490c5:	8b 5c 24 10          	mov    0x10(%esp),%ebx
 80490c9:	8b 74 24 14          	mov    0x14(%esp),%esi
 80490cd:	53                   	push   %ebx
 80490ce:	e8 d0 ff ff ff       	call   80490a3 <string_length>
 80490d3:	89 c7                	mov    %eax,%edi
 80490d5:	89 34 24             	mov    %esi,(%esp)
 80490d8:	e8 c6 ff ff ff       	call   80490a3 <string_length>
 80490dd:	83 c4 04             	add    $0x4,%esp
 80490e0:	ba 01 00 00 00       	mov    $0x1,%edx
 80490e5:	39 c7                	cmp    %eax,%edi
 80490e7:	75 38                	jne    8049121 <strings_not_equal+0x5f>
 80490e9:	0f b6 03             	movzbl (%ebx),%eax
 80490ec:	84 c0                	test   %al,%al
 80490ee:	74 1e                	je     804910e <strings_not_equal+0x4c>
 80490f0:	3a 06                	cmp    (%esi),%al
 80490f2:	74 06                	je     80490fa <strings_not_equal+0x38>
 80490f4:	eb 1f                	jmp    8049115 <strings_not_equal+0x53>
 80490f6:	3a 06                	cmp    (%esi),%al
 80490f8:	75 22                	jne    804911c <strings_not_equal+0x5a>
 80490fa:	83 c3 01             	add    $0x1,%ebx
 80490fd:	83 c6 01             	add    $0x1,%esi
 8049100:	0f b6 03             	movzbl (%ebx),%eax
 8049103:	84 c0                	test   %al,%al
 8049105:	75 ef                	jne    80490f6 <strings_not_equal+0x34>
 8049107:	ba 00 00 00 00       	mov    $0x0,%edx
 804910c:	eb 13                	jmp    8049121 <strings_not_equal+0x5f>
 804910e:	ba 00 00 00 00       	mov    $0x0,%edx
 8049113:	eb 0c                	jmp    8049121 <strings_not_equal+0x5f>
 8049115:	ba 01 00 00 00       	mov    $0x1,%edx
 804911a:	eb 05                	jmp    8049121 <strings_not_equal+0x5f>
 804911c:	ba 01 00 00 00       	mov    $0x1,%edx
 8049121:	89 d0                	mov    %edx,%eax
 8049123:	5b                   	pop    %ebx
 8049124:	5e                   	pop    %esi
 8049125:	5f                   	pop    %edi
 8049126:	c3                   	ret    

08049127 <initialize_bomb>:
 8049127:	83 ec 14             	sub    $0x14,%esp
 804912a:	68 2a 90 04 08       	push   $0x804902a
 804912f:	6a 02                	push   $0x2
 8049131:	e8 2a f6 ff ff       	call   8048760 <signal@plt>
 8049136:	83 c4 1c             	add    $0x1c,%esp
 8049139:	c3                   	ret    

0804913a <initialize_bomb_solve>:
 804913a:	f3 c3                	repz ret 

0804913c <blank_line>:
 804913c:	56                   	push   %esi
 804913d:	53                   	push   %ebx
 804913e:	83 ec 04             	sub    $0x4,%esp
 8049141:	8b 74 24 10          	mov    0x10(%esp),%esi
 8049145:	eb 14                	jmp    804915b <blank_line+0x1f>
 8049147:	e8 64 f7 ff ff       	call   80488b0 <__ctype_b_loc@plt>
 804914c:	83 c6 01             	add    $0x1,%esi
 804914f:	0f be db             	movsbl %bl,%ebx
 8049152:	8b 00                	mov    (%eax),%eax
 8049154:	f6 44 58 01 20       	testb  $0x20,0x1(%eax,%ebx,2)
 8049159:	74 0e                	je     8049169 <blank_line+0x2d>
 804915b:	0f b6 1e             	movzbl (%esi),%ebx
 804915e:	84 db                	test   %bl,%bl
 8049160:	75 e5                	jne    8049147 <blank_line+0xb>
 8049162:	b8 01 00 00 00       	mov    $0x1,%eax
 8049167:	eb 05                	jmp    804916e <blank_line+0x32>
 8049169:	b8 00 00 00 00       	mov    $0x0,%eax
 804916e:	83 c4 04             	add    $0x4,%esp
 8049171:	5b                   	pop    %ebx
 8049172:	5e                   	pop    %esi
 8049173:	c3                   	ret    

08049174 <skip>:
 8049174:	53                   	push   %ebx
 8049175:	83 ec 08             	sub    $0x8,%esp
 8049178:	83 ec 04             	sub    $0x4,%esp
 804917b:	ff 35 d0 c3 04 08    	pushl  0x804c3d0
 8049181:	6a 50                	push   $0x50
 8049183:	a1 cc c3 04 08       	mov    0x804c3cc,%eax
 8049188:	8d 04 80             	lea    (%eax,%eax,4),%eax
 804918b:	c1 e0 04             	shl    $0x4,%eax
 804918e:	05 e0 c3 04 08       	add    $0x804c3e0,%eax
 8049193:	50                   	push   %eax
 8049194:	e8 b7 f5 ff ff       	call   8048750 <fgets@plt>
 8049199:	89 c3                	mov    %eax,%ebx
 804919b:	83 c4 10             	add    $0x10,%esp
 804919e:	85 c0                	test   %eax,%eax
 80491a0:	74 10                	je     80491b2 <skip+0x3e>
 80491a2:	83 ec 0c             	sub    $0xc,%esp
 80491a5:	50                   	push   %eax
 80491a6:	e8 91 ff ff ff       	call   804913c <blank_line>
 80491ab:	83 c4 10             	add    $0x10,%esp
 80491ae:	85 c0                	test   %eax,%eax
 80491b0:	75 c6                	jne    8049178 <skip+0x4>
 80491b2:	89 d8                	mov    %ebx,%eax
 80491b4:	83 c4 08             	add    $0x8,%esp
 80491b7:	5b                   	pop    %ebx
 80491b8:	c3                   	ret    

080491b9 <explode_bomb>:
 80491b9:	83 ec 18             	sub    $0x18,%esp
 80491bc:	68 a3 a2 04 08       	push   $0x804a2a3
 80491c1:	e8 fa f5 ff ff       	call   80487c0 <puts@plt>
 80491c6:	c7 04 24 ac a2 04 08 	movl   $0x804a2ac,(%esp)
 80491cd:	e8 ee f5 ff ff       	call   80487c0 <puts@plt>
 80491d2:	c7 04 24 08 00 00 00 	movl   $0x8,(%esp)
 80491d9:	e8 02 f6 ff ff       	call   80487e0 <exit@plt>

080491de <read_six_numbers>:
 80491de:	83 ec 0c             	sub    $0xc,%esp
 80491e1:	8b 44 24 14          	mov    0x14(%esp),%eax
 80491e5:	8d 50 14             	lea    0x14(%eax),%edx
 80491e8:	52                   	push   %edx
 80491e9:	8d 50 10             	lea    0x10(%eax),%edx
 80491ec:	52                   	push   %edx
 80491ed:	8d 50 0c             	lea    0xc(%eax),%edx
 80491f0:	52                   	push   %edx
 80491f1:	8d 50 08             	lea    0x8(%eax),%edx
 80491f4:	52                   	push   %edx
 80491f5:	8d 50 04             	lea    0x4(%eax),%edx
 80491f8:	52                   	push   %edx
 80491f9:	50                   	push   %eax
 80491fa:	68 c3 a2 04 08       	push   $0x804a2c3
 80491ff:	ff 74 24 2c          	pushl  0x2c(%esp)
 8049203:	e8 08 f6 ff ff       	call   8048810 <__isoc99_sscanf@plt>
 8049208:	83 c4 20             	add    $0x20,%esp
 804920b:	83 f8 05             	cmp    $0x5,%eax
 804920e:	7f 05                	jg     8049215 <read_six_numbers+0x37>
 8049210:	e8 a4 ff ff ff       	call   80491b9 <explode_bomb>
 8049215:	83 c4 0c             	add    $0xc,%esp
 8049218:	c3                   	ret    

08049219 <read_line>:
 8049219:	57                   	push   %edi
 804921a:	56                   	push   %esi
 804921b:	53                   	push   %ebx
 804921c:	e8 53 ff ff ff       	call   8049174 <skip>
 8049221:	85 c0                	test   %eax,%eax
 8049223:	75 70                	jne    8049295 <read_line+0x7c>
 8049225:	a1 c0 c3 04 08       	mov    0x804c3c0,%eax
 804922a:	39 05 d0 c3 04 08    	cmp    %eax,0x804c3d0
 8049230:	75 19                	jne    804924b <read_line+0x32>
 8049232:	83 ec 0c             	sub    $0xc,%esp
 8049235:	68 d5 a2 04 08       	push   $0x804a2d5
 804923a:	e8 81 f5 ff ff       	call   80487c0 <puts@plt>
 804923f:	c7 04 24 08 00 00 00 	movl   $0x8,(%esp)
 8049246:	e8 95 f5 ff ff       	call   80487e0 <exit@plt>
 804924b:	83 ec 0c             	sub    $0xc,%esp
 804924e:	68 f3 a2 04 08       	push   $0x804a2f3
 8049253:	e8 58 f5 ff ff       	call   80487b0 <getenv@plt>
 8049258:	83 c4 10             	add    $0x10,%esp
 804925b:	85 c0                	test   %eax,%eax
 804925d:	74 0a                	je     8049269 <read_line+0x50>
 804925f:	83 ec 0c             	sub    $0xc,%esp
 8049262:	6a 00                	push   $0x0
 8049264:	e8 77 f5 ff ff       	call   80487e0 <exit@plt>
 8049269:	a1 c0 c3 04 08       	mov    0x804c3c0,%eax
 804926e:	a3 d0 c3 04 08       	mov    %eax,0x804c3d0
 8049273:	e8 fc fe ff ff       	call   8049174 <skip>
 8049278:	85 c0                	test   %eax,%eax
 804927a:	75 19                	jne    8049295 <read_line+0x7c>
 804927c:	83 ec 0c             	sub    $0xc,%esp
 804927f:	68 d5 a2 04 08       	push   $0x804a2d5
 8049284:	e8 37 f5 ff ff       	call   80487c0 <puts@plt>
 8049289:	c7 04 24 00 00 00 00 	movl   $0x0,(%esp)
 8049290:	e8 4b f5 ff ff       	call   80487e0 <exit@plt>
 8049295:	8b 15 cc c3 04 08    	mov    0x804c3cc,%edx
 804929b:	8d 1c 92             	lea    (%edx,%edx,4),%ebx
 804929e:	c1 e3 04             	shl    $0x4,%ebx
 80492a1:	81 c3 e0 c3 04 08    	add    $0x804c3e0,%ebx
 80492a7:	b8 00 00 00 00       	mov    $0x0,%eax
 80492ac:	b9 ff ff ff ff       	mov    $0xffffffff,%ecx
 80492b1:	89 df                	mov    %ebx,%edi
 80492b3:	f2 ae                	repnz scas %es:(%edi),%al
 80492b5:	f7 d1                	not    %ecx
 80492b7:	83 e9 01             	sub    $0x1,%ecx
 80492ba:	83 f9 4e             	cmp    $0x4e,%ecx
 80492bd:	7e 36                	jle    80492f5 <read_line+0xdc>
 80492bf:	83 ec 0c             	sub    $0xc,%esp
 80492c2:	68 fe a2 04 08       	push   $0x804a2fe
 80492c7:	e8 f4 f4 ff ff       	call   80487c0 <puts@plt>
 80492cc:	a1 cc c3 04 08       	mov    0x804c3cc,%eax
 80492d1:	8d 50 01             	lea    0x1(%eax),%edx
 80492d4:	89 15 cc c3 04 08    	mov    %edx,0x804c3cc
 80492da:	6b c0 50             	imul   $0x50,%eax,%eax
 80492dd:	05 e0 c3 04 08       	add    $0x804c3e0,%eax
 80492e2:	be 19 a3 04 08       	mov    $0x804a319,%esi
 80492e7:	b9 04 00 00 00       	mov    $0x4,%ecx
 80492ec:	89 c7                	mov    %eax,%edi
 80492ee:	f3 a5                	rep movsl %ds:(%esi),%es:(%edi)
 80492f0:	e8 c4 fe ff ff       	call   80491b9 <explode_bomb>
 80492f5:	8d 04 92             	lea    (%edx,%edx,4),%eax
 80492f8:	c1 e0 04             	shl    $0x4,%eax
 80492fb:	c6 84 01 df c3 04 08 	movb   $0x0,0x804c3df(%ecx,%eax,1)
 8049302:	00 
 8049303:	83 c2 01             	add    $0x1,%edx
 8049306:	89 15 cc c3 04 08    	mov    %edx,0x804c3cc
 804930c:	89 d8                	mov    %ebx,%eax
 804930e:	5b                   	pop    %ebx
 804930f:	5e                   	pop    %esi
 8049310:	5f                   	pop    %edi
 8049311:	c3                   	ret    

08049312 <phase_defused>:
 8049312:	83 ec 6c             	sub    $0x6c,%esp
 8049315:	65 a1 14 00 00 00    	mov    %gs:0x14,%eax
 804931b:	89 44 24 5c          	mov    %eax,0x5c(%esp)
 804931f:	31 c0                	xor    %eax,%eax
 8049321:	83 3d cc c3 04 08 06 	cmpl   $0x6,0x804c3cc
 8049328:	75 73                	jne    804939d <phase_defused+0x8b>
 804932a:	83 ec 0c             	sub    $0xc,%esp
 804932d:	8d 44 24 18          	lea    0x18(%esp),%eax
 8049331:	50                   	push   %eax
 8049332:	8d 44 24 18          	lea    0x18(%esp),%eax
 8049336:	50                   	push   %eax
 8049337:	8d 44 24 18          	lea    0x18(%esp),%eax
 804933b:	50                   	push   %eax
 804933c:	68 29 a3 04 08       	push   $0x804a329
 8049341:	68 d0 c4 04 08       	push   $0x804c4d0
 8049346:	e8 c5 f4 ff ff       	call   8048810 <__isoc99_sscanf@plt>
 804934b:	83 c4 20             	add    $0x20,%esp
 804934e:	83 f8 03             	cmp    $0x3,%eax
 8049351:	75 3a                	jne    804938d <phase_defused+0x7b>
 8049353:	83 ec 08             	sub    $0x8,%esp
 8049356:	68 32 a3 04 08       	push   $0x804a332
 804935b:	8d 44 24 18          	lea    0x18(%esp),%eax
 804935f:	50                   	push   %eax
 8049360:	e8 5d fd ff ff       	call   80490c2 <strings_not_equal>
 8049365:	83 c4 10             	add    $0x10,%esp
 8049368:	85 c0                	test   %eax,%eax
 804936a:	75 21                	jne    804938d <phase_defused+0x7b>
 804936c:	83 ec 0c             	sub    $0xc,%esp
 804936f:	68 f8 a1 04 08       	push   $0x804a1f8
 8049374:	e8 47 f4 ff ff       	call   80487c0 <puts@plt>
 8049379:	c7 04 24 20 a2 04 08 	movl   $0x804a220,(%esp)
 8049380:	e8 3b f4 ff ff       	call   80487c0 <puts@plt>
 8049385:	e8 44 fc ff ff       	call   8048fce <secret_phase>
 804938a:	83 c4 10             	add    $0x10,%esp
 804938d:	83 ec 0c             	sub    $0xc,%esp
 8049390:	68 58 a2 04 08       	push   $0x804a258
 8049395:	e8 26 f4 ff ff       	call   80487c0 <puts@plt>
 804939a:	83 c4 10             	add    $0x10,%esp
 804939d:	8b 44 24 5c          	mov    0x5c(%esp),%eax
 80493a1:	65 33 05 14 00 00 00 	xor    %gs:0x14,%eax
 80493a8:	74 05                	je     80493af <phase_defused+0x9d>
 80493aa:	e8 e1 f3 ff ff       	call   8048790 <__stack_chk_fail@plt>
 80493af:	83 c4 6c             	add    $0x6c,%esp
 80493b2:	c3                   	ret    

080493b3 <sigalrm_handler>:
 80493b3:	83 ec 0c             	sub    $0xc,%esp
 80493b6:	6a 00                	push   $0x0
 80493b8:	68 a0 a3 04 08       	push   $0x804a3a0
 80493bd:	6a 01                	push   $0x1
 80493bf:	ff 35 a0 c3 04 08    	pushl  0x804c3a0
 80493c5:	e8 96 f4 ff ff       	call   8048860 <__fprintf_chk@plt>
 80493ca:	c7 04 24 01 00 00 00 	movl   $0x1,(%esp)
 80493d1:	e8 0a f4 ff ff       	call   80487e0 <exit@plt>

080493d6 <rio_readlineb>:
 80493d6:	55                   	push   %ebp
 80493d7:	57                   	push   %edi
 80493d8:	56                   	push   %esi
 80493d9:	53                   	push   %ebx
 80493da:	83 ec 2c             	sub    $0x2c,%esp
 80493dd:	89 d7                	mov    %edx,%edi
 80493df:	89 4c 24 0c          	mov    %ecx,0xc(%esp)
 80493e3:	65 8b 15 14 00 00 00 	mov    %gs:0x14,%edx
 80493ea:	89 54 24 1c          	mov    %edx,0x1c(%esp)
 80493ee:	31 d2                	xor    %edx,%edx
 80493f0:	83 f9 01             	cmp    $0x1,%ecx
 80493f3:	76 79                	jbe    804946e <rio_readlineb+0x98>
 80493f5:	89 c3                	mov    %eax,%ebx
 80493f7:	89 4c 24 08          	mov    %ecx,0x8(%esp)
 80493fb:	bd 01 00 00 00       	mov    $0x1,%ebp
 8049400:	8d 73 0c             	lea    0xc(%ebx),%esi
 8049403:	eb 2d                	jmp    8049432 <rio_readlineb+0x5c>
 8049405:	83 ec 04             	sub    $0x4,%esp
 8049408:	68 00 20 00 00       	push   $0x2000
 804940d:	56                   	push   %esi
 804940e:	ff 33                	pushl  (%ebx)
 8049410:	e8 1b f3 ff ff       	call   8048730 <read@plt>
 8049415:	89 43 04             	mov    %eax,0x4(%ebx)
 8049418:	83 c4 10             	add    $0x10,%esp
 804941b:	85 c0                	test   %eax,%eax
 804941d:	79 0c                	jns    804942b <rio_readlineb+0x55>
 804941f:	e8 0c f4 ff ff       	call   8048830 <__errno_location@plt>
 8049424:	83 38 04             	cmpl   $0x4,(%eax)
 8049427:	74 09                	je     8049432 <rio_readlineb+0x5c>
 8049429:	eb 62                	jmp    804948d <rio_readlineb+0xb7>
 804942b:	85 c0                	test   %eax,%eax
 804942d:	74 63                	je     8049492 <rio_readlineb+0xbc>
 804942f:	89 73 08             	mov    %esi,0x8(%ebx)
 8049432:	8b 43 04             	mov    0x4(%ebx),%eax
 8049435:	85 c0                	test   %eax,%eax
 8049437:	7e cc                	jle    8049405 <rio_readlineb+0x2f>
 8049439:	8b 4b 08             	mov    0x8(%ebx),%ecx
 804943c:	0f b6 11             	movzbl (%ecx),%edx
 804943f:	88 54 24 1b          	mov    %dl,0x1b(%esp)
 8049443:	83 c1 01             	add    $0x1,%ecx
 8049446:	89 4b 08             	mov    %ecx,0x8(%ebx)
 8049449:	83 e8 01             	sub    $0x1,%eax
 804944c:	89 43 04             	mov    %eax,0x4(%ebx)
 804944f:	83 c7 01             	add    $0x1,%edi
 8049452:	88 57 ff             	mov    %dl,-0x1(%edi)
 8049455:	80 fa 0a             	cmp    $0xa,%dl
 8049458:	75 09                	jne    8049463 <rio_readlineb+0x8d>
 804945a:	eb 1d                	jmp    8049479 <rio_readlineb+0xa3>
 804945c:	83 fd 01             	cmp    $0x1,%ebp
 804945f:	75 18                	jne    8049479 <rio_readlineb+0xa3>
 8049461:	eb 1b                	jmp    804947e <rio_readlineb+0xa8>
 8049463:	83 c5 01             	add    $0x1,%ebp
 8049466:	3b 6c 24 08          	cmp    0x8(%esp),%ebp
 804946a:	74 09                	je     8049475 <rio_readlineb+0x9f>
 804946c:	eb c4                	jmp    8049432 <rio_readlineb+0x5c>
 804946e:	bd 01 00 00 00       	mov    $0x1,%ebp
 8049473:	eb 04                	jmp    8049479 <rio_readlineb+0xa3>
 8049475:	8b 6c 24 0c          	mov    0xc(%esp),%ebp
 8049479:	c6 07 00             	movb   $0x0,(%edi)
 804947c:	89 e8                	mov    %ebp,%eax
 804947e:	8b 54 24 1c          	mov    0x1c(%esp),%edx
 8049482:	65 33 15 14 00 00 00 	xor    %gs:0x14,%edx
 8049489:	74 17                	je     80494a2 <rio_readlineb+0xcc>
 804948b:	eb 10                	jmp    804949d <rio_readlineb+0xc7>
 804948d:	b8 ff ff ff ff       	mov    $0xffffffff,%eax
 8049492:	85 c0                	test   %eax,%eax
 8049494:	74 c6                	je     804945c <rio_readlineb+0x86>
 8049496:	b8 ff ff ff ff       	mov    $0xffffffff,%eax
 804949b:	eb e1                	jmp    804947e <rio_readlineb+0xa8>
 804949d:	e8 ee f2 ff ff       	call   8048790 <__stack_chk_fail@plt>
 80494a2:	83 c4 2c             	add    $0x2c,%esp
 80494a5:	5b                   	pop    %ebx
 80494a6:	5e                   	pop    %esi
 80494a7:	5f                   	pop    %edi
 80494a8:	5d                   	pop    %ebp
 80494a9:	c3                   	ret    

080494aa <submitr>:
 80494aa:	55                   	push   %ebp
 80494ab:	57                   	push   %edi
 80494ac:	56                   	push   %esi
 80494ad:	53                   	push   %ebx
 80494ae:	81 ec 60 a0 00 00    	sub    $0xa060,%esp
 80494b4:	8b b4 24 74 a0 00 00 	mov    0xa074(%esp),%esi
 80494bb:	8b 84 24 7c a0 00 00 	mov    0xa07c(%esp),%eax
 80494c2:	89 44 24 0c          	mov    %eax,0xc(%esp)
 80494c6:	8b 84 24 80 a0 00 00 	mov    0xa080(%esp),%eax
 80494cd:	89 44 24 10          	mov    %eax,0x10(%esp)
 80494d1:	8b 84 24 84 a0 00 00 	mov    0xa084(%esp),%eax
 80494d8:	89 44 24 1c          	mov    %eax,0x1c(%esp)
 80494dc:	8b 84 24 88 a0 00 00 	mov    0xa088(%esp),%eax
 80494e3:	89 44 24 14          	mov    %eax,0x14(%esp)
 80494e7:	8b 9c 24 8c a0 00 00 	mov    0xa08c(%esp),%ebx
 80494ee:	8b 84 24 90 a0 00 00 	mov    0xa090(%esp),%eax
 80494f5:	89 44 24 18          	mov    %eax,0x18(%esp)
 80494f9:	65 a1 14 00 00 00    	mov    %gs:0x14,%eax
 80494ff:	89 84 24 50 a0 00 00 	mov    %eax,0xa050(%esp)
 8049506:	31 c0                	xor    %eax,%eax
 8049508:	c7 44 24 30 00 00 00 	movl   $0x0,0x30(%esp)
 804950f:	00 
 8049510:	6a 00                	push   $0x0
 8049512:	6a 01                	push   $0x1
 8049514:	6a 02                	push   $0x2
 8049516:	e8 35 f3 ff ff       	call   8048850 <socket@plt>
 804951b:	89 44 24 14          	mov    %eax,0x14(%esp)
 804951f:	83 c4 10             	add    $0x10,%esp
 8049522:	85 c0                	test   %eax,%eax
 8049524:	79 52                	jns    8049578 <submitr+0xce>
 8049526:	8b 44 24 14          	mov    0x14(%esp),%eax
 804952a:	c7 00 45 72 72 6f    	movl   $0x6f727245,(%eax)
 8049530:	c7 40 04 72 3a 20 43 	movl   $0x43203a72,0x4(%eax)
 8049537:	c7 40 08 6c 69 65 6e 	movl   $0x6e65696c,0x8(%eax)
 804953e:	c7 40 0c 74 20 75 6e 	movl   $0x6e752074,0xc(%eax)
 8049545:	c7 40 10 61 62 6c 65 	movl   $0x656c6261,0x10(%eax)
 804954c:	c7 40 14 20 74 6f 20 	movl   $0x206f7420,0x14(%eax)
 8049553:	c7 40 18 63 72 65 61 	movl   $0x61657263,0x18(%eax)
 804955a:	c7 40 1c 74 65 20 73 	movl   $0x73206574,0x1c(%eax)
 8049561:	c7 40 20 6f 63 6b 65 	movl   $0x656b636f,0x20(%eax)
 8049568:	66 c7 40 24 74 00    	movw   $0x74,0x24(%eax)
 804956e:	b8 ff ff ff ff       	mov    $0xffffffff,%eax
 8049573:	e9 3f 06 00 00       	jmp    8049bb7 <submitr+0x70d>
 8049578:	83 ec 0c             	sub    $0xc,%esp
 804957b:	56                   	push   %esi
 804957c:	e8 ef f2 ff ff       	call   8048870 <gethostbyname@plt>
 8049581:	83 c4 10             	add    $0x10,%esp
 8049584:	85 c0                	test   %eax,%eax
 8049586:	75 73                	jne    80495fb <submitr+0x151>
 8049588:	8b 44 24 14          	mov    0x14(%esp),%eax
 804958c:	c7 00 45 72 72 6f    	movl   $0x6f727245,(%eax)
 8049592:	c7 40 04 72 3a 20 44 	movl   $0x44203a72,0x4(%eax)
 8049599:	c7 40 08 4e 53 20 69 	movl   $0x6920534e,0x8(%eax)
 80495a0:	c7 40 0c 73 20 75 6e 	movl   $0x6e752073,0xc(%eax)
 80495a7:	c7 40 10 61 62 6c 65 	movl   $0x656c6261,0x10(%eax)
 80495ae:	c7 40 14 20 74 6f 20 	movl   $0x206f7420,0x14(%eax)
 80495b5:	c7 40 18 72 65 73 6f 	movl   $0x6f736572,0x18(%eax)
 80495bc:	c7 40 1c 6c 76 65 20 	movl   $0x2065766c,0x1c(%eax)
 80495c3:	c7 40 20 73 65 72 76 	movl   $0x76726573,0x20(%eax)
 80495ca:	c7 40 24 65 72 20 61 	movl   $0x61207265,0x24(%eax)
 80495d1:	c7 40 28 64 64 72 65 	movl   $0x65726464,0x28(%eax)
 80495d8:	66 c7 40 2c 73 73    	movw   $0x7373,0x2c(%eax)
 80495de:	c6 40 2e 00          	movb   $0x0,0x2e(%eax)
 80495e2:	83 ec 0c             	sub    $0xc,%esp
 80495e5:	ff 74 24 10          	pushl  0x10(%esp)
 80495e9:	e8 b2 f2 ff ff       	call   80488a0 <close@plt>
 80495ee:	83 c4 10             	add    $0x10,%esp
 80495f1:	b8 ff ff ff ff       	mov    $0xffffffff,%eax
 80495f6:	e9 bc 05 00 00       	jmp    8049bb7 <submitr+0x70d>
 80495fb:	8d 74 24 30          	lea    0x30(%esp),%esi
 80495ff:	c7 44 24 30 00 00 00 	movl   $0x0,0x30(%esp)
 8049606:	00 
 8049607:	c7 44 24 34 00 00 00 	movl   $0x0,0x34(%esp)
 804960e:	00 
 804960f:	c7 44 24 38 00 00 00 	movl   $0x0,0x38(%esp)
 8049616:	00 
 8049617:	c7 44 24 3c 00 00 00 	movl   $0x0,0x3c(%esp)
 804961e:	00 
 804961f:	66 c7 44 24 30 02 00 	movw   $0x2,0x30(%esp)
 8049626:	6a 0c                	push   $0xc
 8049628:	ff 70 0c             	pushl  0xc(%eax)
 804962b:	8b 40 10             	mov    0x10(%eax),%eax
 804962e:	ff 30                	pushl  (%eax)
 8049630:	8d 44 24 40          	lea    0x40(%esp),%eax
 8049634:	50                   	push   %eax
 8049635:	e8 96 f1 ff ff       	call   80487d0 <__memmove_chk@plt>
 804963a:	0f b7 84 24 84 a0 00 	movzwl 0xa084(%esp),%eax
 8049641:	00 
 8049642:	66 c1 c8 08          	ror    $0x8,%ax
 8049646:	66 89 44 24 42       	mov    %ax,0x42(%esp)
 804964b:	83 c4 0c             	add    $0xc,%esp
 804964e:	6a 10                	push   $0x10
 8049650:	56                   	push   %esi
 8049651:	ff 74 24 10          	pushl  0x10(%esp)
 8049655:	e8 36 f2 ff ff       	call   8048890 <connect@plt>
 804965a:	83 c4 10             	add    $0x10,%esp
 804965d:	85 c0                	test   %eax,%eax
 804965f:	79 65                	jns    80496c6 <submitr+0x21c>
 8049661:	8b 44 24 14          	mov    0x14(%esp),%eax
 8049665:	c7 00 45 72 72 6f    	movl   $0x6f727245,(%eax)
 804966b:	c7 40 04 72 3a 20 55 	movl   $0x55203a72,0x4(%eax)
 8049672:	c7 40 08 6e 61 62 6c 	movl   $0x6c62616e,0x8(%eax)
 8049679:	c7 40 0c 65 20 74 6f 	movl   $0x6f742065,0xc(%eax)
 8049680:	c7 40 10 20 63 6f 6e 	movl   $0x6e6f6320,0x10(%eax)
 8049687:	c7 40 14 6e 65 63 74 	movl   $0x7463656e,0x14(%eax)
 804968e:	c7 40 18 20 74 6f 20 	movl   $0x206f7420,0x18(%eax)
 8049695:	c7 40 1c 74 68 65 20 	movl   $0x20656874,0x1c(%eax)
 804969c:	c7 40 20 73 65 72 76 	movl   $0x76726573,0x20(%eax)
 80496a3:	66 c7 40 24 65 72    	movw   $0x7265,0x24(%eax)
 80496a9:	c6 40 26 00          	movb   $0x0,0x26(%eax)
 80496ad:	83 ec 0c             	sub    $0xc,%esp
 80496b0:	ff 74 24 10          	pushl  0x10(%esp)
 80496b4:	e8 e7 f1 ff ff       	call   80488a0 <close@plt>
 80496b9:	83 c4 10             	add    $0x10,%esp
 80496bc:	b8 ff ff ff ff       	mov    $0xffffffff,%eax
 80496c1:	e9 f1 04 00 00       	jmp    8049bb7 <submitr+0x70d>
 80496c6:	be ff ff ff ff       	mov    $0xffffffff,%esi
 80496cb:	b8 00 00 00 00       	mov    $0x0,%eax
 80496d0:	89 f1                	mov    %esi,%ecx
 80496d2:	89 df                	mov    %ebx,%edi
 80496d4:	f2 ae                	repnz scas %es:(%edi),%al
 80496d6:	f7 d1                	not    %ecx
 80496d8:	89 cd                	mov    %ecx,%ebp
 80496da:	89 f1                	mov    %esi,%ecx
 80496dc:	8b 7c 24 08          	mov    0x8(%esp),%edi
 80496e0:	f2 ae                	repnz scas %es:(%edi),%al
 80496e2:	89 4c 24 1c          	mov    %ecx,0x1c(%esp)
 80496e6:	89 f1                	mov    %esi,%ecx
 80496e8:	8b 7c 24 0c          	mov    0xc(%esp),%edi
 80496ec:	f2 ae                	repnz scas %es:(%edi),%al
 80496ee:	89 ca                	mov    %ecx,%edx
 80496f0:	f7 d2                	not    %edx
 80496f2:	89 f1                	mov    %esi,%ecx
 80496f4:	8b 7c 24 10          	mov    0x10(%esp),%edi
 80496f8:	f2 ae                	repnz scas %es:(%edi),%al
 80496fa:	2b 54 24 1c          	sub    0x1c(%esp),%edx
 80496fe:	29 ca                	sub    %ecx,%edx
 8049700:	8d 44 6d fd          	lea    -0x3(%ebp,%ebp,2),%eax
 8049704:	8d 44 02 7b          	lea    0x7b(%edx,%eax,1),%eax
 8049708:	3d 00 20 00 00       	cmp    $0x2000,%eax
 804970d:	76 7e                	jbe    804978d <submitr+0x2e3>
 804970f:	8b 44 24 14          	mov    0x14(%esp),%eax
 8049713:	c7 00 45 72 72 6f    	movl   $0x6f727245,(%eax)
 8049719:	c7 40 04 72 3a 20 52 	movl   $0x52203a72,0x4(%eax)
 8049720:	c7 40 08 65 73 75 6c 	movl   $0x6c757365,0x8(%eax)
 8049727:	c7 40 0c 74 20 73 74 	movl   $0x74732074,0xc(%eax)
 804972e:	c7 40 10 72 69 6e 67 	movl   $0x676e6972,0x10(%eax)
 8049735:	c7 40 14 20 74 6f 6f 	movl   $0x6f6f7420,0x14(%eax)
 804973c:	c7 40 18 20 6c 61 72 	movl   $0x72616c20,0x18(%eax)
 8049743:	c7 40 1c 67 65 2e 20 	movl   $0x202e6567,0x1c(%eax)
 804974a:	c7 40 20 49 6e 63 72 	movl   $0x72636e49,0x20(%eax)
 8049751:	c7 40 24 65 61 73 65 	movl   $0x65736165,0x24(%eax)
 8049758:	c7 40 28 20 53 55 42 	movl   $0x42555320,0x28(%eax)
 804975f:	c7 40 2c 4d 49 54 52 	movl   $0x5254494d,0x2c(%eax)
 8049766:	c7 40 30 5f 4d 41 58 	movl   $0x58414d5f,0x30(%eax)
 804976d:	c7 40 34 42 55 46 00 	movl   $0x465542,0x34(%eax)
 8049774:	83 ec 0c             	sub    $0xc,%esp
 8049777:	ff 74 24 10          	pushl  0x10(%esp)
 804977b:	e8 20 f1 ff ff       	call   80488a0 <close@plt>
 8049780:	83 c4 10             	add    $0x10,%esp
 8049783:	b8 ff ff ff ff       	mov    $0xffffffff,%eax
 8049788:	e9 2a 04 00 00       	jmp    8049bb7 <submitr+0x70d>
 804978d:	8d 94 24 4c 40 00 00 	lea    0x404c(%esp),%edx
 8049794:	b9 00 08 00 00       	mov    $0x800,%ecx
 8049799:	b8 00 00 00 00       	mov    $0x0,%eax
 804979e:	89 d7                	mov    %edx,%edi
 80497a0:	f3 ab                	rep stos %eax,%es:(%edi)
 80497a2:	b9 ff ff ff ff       	mov    $0xffffffff,%ecx
 80497a7:	89 df                	mov    %ebx,%edi
 80497a9:	f2 ae                	repnz scas %es:(%edi),%al
 80497ab:	f7 d1                	not    %ecx
 80497ad:	89 ce                	mov    %ecx,%esi
 80497af:	83 ee 01             	sub    $0x1,%esi
 80497b2:	0f 84 5c 04 00 00    	je     8049c14 <submitr+0x76a>
 80497b8:	89 d5                	mov    %edx,%ebp
 80497ba:	bf d9 ff 00 00       	mov    $0xffd9,%edi
 80497bf:	0f b6 13             	movzbl (%ebx),%edx
 80497c2:	8d 4a d6             	lea    -0x2a(%edx),%ecx
 80497c5:	b8 01 00 00 00       	mov    $0x1,%eax
 80497ca:	80 f9 0f             	cmp    $0xf,%cl
 80497cd:	77 0a                	ja     80497d9 <submitr+0x32f>
 80497cf:	89 f8                	mov    %edi,%eax
 80497d1:	d3 e8                	shr    %cl,%eax
 80497d3:	83 f0 01             	xor    $0x1,%eax
 80497d6:	83 e0 01             	and    $0x1,%eax
 80497d9:	80 fa 5f             	cmp    $0x5f,%dl
 80497dc:	0f 94 c1             	sete   %cl
 80497df:	38 c1                	cmp    %al,%cl
 80497e1:	73 0c                	jae    80497ef <submitr+0x345>
 80497e3:	89 d0                	mov    %edx,%eax
 80497e5:	83 e0 df             	and    $0xffffffdf,%eax
 80497e8:	83 e8 41             	sub    $0x41,%eax
 80497eb:	3c 19                	cmp    $0x19,%al
 80497ed:	77 08                	ja     80497f7 <submitr+0x34d>
 80497ef:	88 55 00             	mov    %dl,0x0(%ebp)
 80497f2:	8d 6d 01             	lea    0x1(%ebp),%ebp
 80497f5:	eb 62                	jmp    8049859 <submitr+0x3af>
 80497f7:	80 fa 20             	cmp    $0x20,%dl
 80497fa:	75 09                	jne    8049805 <submitr+0x35b>
 80497fc:	c6 45 00 2b          	movb   $0x2b,0x0(%ebp)
 8049800:	8d 6d 01             	lea    0x1(%ebp),%ebp
 8049803:	eb 54                	jmp    8049859 <submitr+0x3af>
 8049805:	8d 42 e0             	lea    -0x20(%edx),%eax
 8049808:	3c 5f                	cmp    $0x5f,%al
 804980a:	76 09                	jbe    8049815 <submitr+0x36b>
 804980c:	80 fa 09             	cmp    $0x9,%dl
 804980f:	0f 85 bb 03 00 00    	jne    8049bd0 <submitr+0x726>
 8049815:	83 ec 0c             	sub    $0xc,%esp
 8049818:	0f b6 d2             	movzbl %dl,%edx
 804981b:	52                   	push   %edx
 804981c:	68 b8 a4 04 08       	push   $0x804a4b8
 8049821:	6a 08                	push   $0x8
 8049823:	6a 01                	push   $0x1
 8049825:	8d 84 24 68 80 00 00 	lea    0x8068(%esp),%eax
 804982c:	50                   	push   %eax
 804982d:	e8 8e f0 ff ff       	call   80488c0 <__sprintf_chk@plt>
 8049832:	0f b6 84 24 6c 80 00 	movzbl 0x806c(%esp),%eax
 8049839:	00 
 804983a:	88 45 00             	mov    %al,0x0(%ebp)
 804983d:	0f b6 84 24 6d 80 00 	movzbl 0x806d(%esp),%eax
 8049844:	00 
 8049845:	88 45 01             	mov    %al,0x1(%ebp)
 8049848:	0f b6 84 24 6e 80 00 	movzbl 0x806e(%esp),%eax
 804984f:	00 
 8049850:	88 45 02             	mov    %al,0x2(%ebp)
 8049853:	83 c4 20             	add    $0x20,%esp
 8049856:	8d 6d 03             	lea    0x3(%ebp),%ebp
 8049859:	83 c3 01             	add    $0x1,%ebx
 804985c:	83 ee 01             	sub    $0x1,%esi
 804985f:	0f 85 5a ff ff ff    	jne    80497bf <submitr+0x315>
 8049865:	e9 aa 03 00 00       	jmp    8049c14 <submitr+0x76a>
 804986a:	83 ec 04             	sub    $0x4,%esp
 804986d:	53                   	push   %ebx
 804986e:	56                   	push   %esi
 804986f:	55                   	push   %ebp
 8049870:	e8 8b ef ff ff       	call   8048800 <write@plt>
 8049875:	83 c4 10             	add    $0x10,%esp
 8049878:	85 c0                	test   %eax,%eax
 804987a:	7f 0f                	jg     804988b <submitr+0x3e1>
 804987c:	e8 af ef ff ff       	call   8048830 <__errno_location@plt>
 8049881:	83 38 04             	cmpl   $0x4,(%eax)
 8049884:	75 0f                	jne    8049895 <submitr+0x3eb>
 8049886:	b8 00 00 00 00       	mov    $0x0,%eax
 804988b:	01 c6                	add    %eax,%esi
 804988d:	29 c3                	sub    %eax,%ebx
 804988f:	75 d9                	jne    804986a <submitr+0x3c0>
 8049891:	85 ff                	test   %edi,%edi
 8049893:	79 69                	jns    80498fe <submitr+0x454>
 8049895:	8b 44 24 14          	mov    0x14(%esp),%eax
 8049899:	c7 00 45 72 72 6f    	movl   $0x6f727245,(%eax)
 804989f:	c7 40 04 72 3a 20 43 	movl   $0x43203a72,0x4(%eax)
 80498a6:	c7 40 08 6c 69 65 6e 	movl   $0x6e65696c,0x8(%eax)
 80498ad:	c7 40 0c 74 20 75 6e 	movl   $0x6e752074,0xc(%eax)
 80498b4:	c7 40 10 61 62 6c 65 	movl   $0x656c6261,0x10(%eax)
 80498bb:	c7 40 14 20 74 6f 20 	movl   $0x206f7420,0x14(%eax)
 80498c2:	c7 40 18 77 72 69 74 	movl   $0x74697277,0x18(%eax)
 80498c9:	c7 40 1c 65 20 74 6f 	movl   $0x6f742065,0x1c(%eax)
 80498d0:	c7 40 20 20 74 68 65 	movl   $0x65687420,0x20(%eax)
 80498d7:	c7 40 24 20 73 65 72 	movl   $0x72657320,0x24(%eax)
 80498de:	c7 40 28 76 65 72 00 	movl   $0x726576,0x28(%eax)
 80498e5:	83 ec 0c             	sub    $0xc,%esp
 80498e8:	ff 74 24 10          	pushl  0x10(%esp)
 80498ec:	e8 af ef ff ff       	call   80488a0 <close@plt>
 80498f1:	83 c4 10             	add    $0x10,%esp
 80498f4:	b8 ff ff ff ff       	mov    $0xffffffff,%eax
 80498f9:	e9 b9 02 00 00       	jmp    8049bb7 <submitr+0x70d>
 80498fe:	8b 44 24 04          	mov    0x4(%esp),%eax
 8049902:	89 44 24 40          	mov    %eax,0x40(%esp)
 8049906:	c7 44 24 44 00 00 00 	movl   $0x0,0x44(%esp)
 804990d:	00 
 804990e:	8d 44 24 4c          	lea    0x4c(%esp),%eax
 8049912:	89 44 24 48          	mov    %eax,0x48(%esp)
 8049916:	b9 00 20 00 00       	mov    $0x2000,%ecx
 804991b:	8d 94 24 4c 20 00 00 	lea    0x204c(%esp),%edx
 8049922:	8d 44 24 40          	lea    0x40(%esp),%eax
 8049926:	e8 ab fa ff ff       	call   80493d6 <rio_readlineb>
 804992b:	85 c0                	test   %eax,%eax
 804992d:	7f 7d                	jg     80499ac <submitr+0x502>
 804992f:	8b 44 24 14          	mov    0x14(%esp),%eax
 8049933:	c7 00 45 72 72 6f    	movl   $0x6f727245,(%eax)
 8049939:	c7 40 04 72 3a 20 43 	movl   $0x43203a72,0x4(%eax)
 8049940:	c7 40 08 6c 69 65 6e 	movl   $0x6e65696c,0x8(%eax)
 8049947:	c7 40 0c 74 20 75 6e 	movl   $0x6e752074,0xc(%eax)
 804994e:	c7 40 10 61 62 6c 65 	movl   $0x656c6261,0x10(%eax)
 8049955:	c7 40 14 20 74 6f 20 	movl   $0x206f7420,0x14(%eax)
 804995c:	c7 40 18 72 65 61 64 	movl   $0x64616572,0x18(%eax)
 8049963:	c7 40 1c 20 66 69 72 	movl   $0x72696620,0x1c(%eax)
 804996a:	c7 40 20 73 74 20 68 	movl   $0x68207473,0x20(%eax)
 8049971:	c7 40 24 65 61 64 65 	movl   $0x65646165,0x24(%eax)
 8049978:	c7 40 28 72 20 66 72 	movl   $0x72662072,0x28(%eax)
 804997f:	c7 40 2c 6f 6d 20 73 	movl   $0x73206d6f,0x2c(%eax)
 8049986:	c7 40 30 65 72 76 65 	movl   $0x65767265,0x30(%eax)
 804998d:	66 c7 40 34 72 00    	movw   $0x72,0x34(%eax)
 8049993:	83 ec 0c             	sub    $0xc,%esp
 8049996:	ff 74 24 10          	pushl  0x10(%esp)
 804999a:	e8 01 ef ff ff       	call   80488a0 <close@plt>
 804999f:	83 c4 10             	add    $0x10,%esp
 80499a2:	b8 ff ff ff ff       	mov    $0xffffffff,%eax
 80499a7:	e9 0b 02 00 00       	jmp    8049bb7 <submitr+0x70d>
 80499ac:	83 ec 0c             	sub    $0xc,%esp
 80499af:	8d 84 24 58 80 00 00 	lea    0x8058(%esp),%eax
 80499b6:	50                   	push   %eax
 80499b7:	8d 44 24 3c          	lea    0x3c(%esp),%eax
 80499bb:	50                   	push   %eax
 80499bc:	8d 84 24 60 60 00 00 	lea    0x6060(%esp),%eax
 80499c3:	50                   	push   %eax
 80499c4:	68 bf a4 04 08       	push   $0x804a4bf
 80499c9:	8d 84 24 68 20 00 00 	lea    0x2068(%esp),%eax
 80499d0:	50                   	push   %eax
 80499d1:	e8 3a ee ff ff       	call   8048810 <__isoc99_sscanf@plt>
 80499d6:	8b 44 24 4c          	mov    0x4c(%esp),%eax
 80499da:	83 c4 20             	add    $0x20,%esp
 80499dd:	3d c8 00 00 00       	cmp    $0xc8,%eax
 80499e2:	0f 84 c4 00 00 00    	je     8049aac <submitr+0x602>
 80499e8:	83 ec 08             	sub    $0x8,%esp
 80499eb:	8d 94 24 54 80 00 00 	lea    0x8054(%esp),%edx
 80499f2:	52                   	push   %edx
 80499f3:	50                   	push   %eax
 80499f4:	68 c4 a3 04 08       	push   $0x804a3c4
 80499f9:	6a ff                	push   $0xffffffff
 80499fb:	6a 01                	push   $0x1
 80499fd:	ff 74 24 30          	pushl  0x30(%esp)
 8049a01:	e8 ba ee ff ff       	call   80488c0 <__sprintf_chk@plt>
 8049a06:	83 c4 14             	add    $0x14,%esp
 8049a09:	ff 74 24 10          	pushl  0x10(%esp)
 8049a0d:	e8 8e ee ff ff       	call   80488a0 <close@plt>
 8049a12:	83 c4 10             	add    $0x10,%esp
 8049a15:	b8 ff ff ff ff       	mov    $0xffffffff,%eax
 8049a1a:	e9 98 01 00 00       	jmp    8049bb7 <submitr+0x70d>
 8049a1f:	b9 00 20 00 00       	mov    $0x2000,%ecx
 8049a24:	8d 94 24 4c 20 00 00 	lea    0x204c(%esp),%edx
 8049a2b:	8d 44 24 40          	lea    0x40(%esp),%eax
 8049a2f:	e8 a2 f9 ff ff       	call   80493d6 <rio_readlineb>
 8049a34:	85 c0                	test   %eax,%eax
 8049a36:	7f 74                	jg     8049aac <submitr+0x602>
 8049a38:	8b 44 24 14          	mov    0x14(%esp),%eax
 8049a3c:	c7 00 45 72 72 6f    	movl   $0x6f727245,(%eax)
 8049a42:	c7 40 04 72 3a 20 43 	movl   $0x43203a72,0x4(%eax)
 8049a49:	c7 40 08 6c 69 65 6e 	movl   $0x6e65696c,0x8(%eax)
 8049a50:	c7 40 0c 74 20 75 6e 	movl   $0x6e752074,0xc(%eax)
 8049a57:	c7 40 10 61 62 6c 65 	movl   $0x656c6261,0x10(%eax)
 8049a5e:	c7 40 14 20 74 6f 20 	movl   $0x206f7420,0x14(%eax)
 8049a65:	c7 40 18 72 65 61 64 	movl   $0x64616572,0x18(%eax)
 8049a6c:	c7 40 1c 20 68 65 61 	movl   $0x61656820,0x1c(%eax)
 8049a73:	c7 40 20 64 65 72 73 	movl   $0x73726564,0x20(%eax)
 8049a7a:	c7 40 24 20 66 72 6f 	movl   $0x6f726620,0x24(%eax)
 8049a81:	c7 40 28 6d 20 73 65 	movl   $0x6573206d,0x28(%eax)
 8049a88:	c7 40 2c 72 76 65 72 	movl   $0x72657672,0x2c(%eax)
 8049a8f:	c6 40 30 00          	movb   $0x0,0x30(%eax)
 8049a93:	83 ec 0c             	sub    $0xc,%esp
 8049a96:	ff 74 24 10          	pushl  0x10(%esp)
 8049a9a:	e8 01 ee ff ff       	call   80488a0 <close@plt>
 8049a9f:	83 c4 10             	add    $0x10,%esp
 8049aa2:	b8 ff ff ff ff       	mov    $0xffffffff,%eax
 8049aa7:	e9 0b 01 00 00       	jmp    8049bb7 <submitr+0x70d>
 8049aac:	80 bc 24 4c 20 00 00 	cmpb   $0xd,0x204c(%esp)
 8049ab3:	0d 
 8049ab4:	0f 85 65 ff ff ff    	jne    8049a1f <submitr+0x575>
 8049aba:	80 bc 24 4d 20 00 00 	cmpb   $0xa,0x204d(%esp)
 8049ac1:	0a 
 8049ac2:	0f 85 57 ff ff ff    	jne    8049a1f <submitr+0x575>
 8049ac8:	80 bc 24 4e 20 00 00 	cmpb   $0x0,0x204e(%esp)
 8049acf:	00 
 8049ad0:	0f 85 49 ff ff ff    	jne    8049a1f <submitr+0x575>
 8049ad6:	b9 00 20 00 00       	mov    $0x2000,%ecx
 8049adb:	8d 94 24 4c 20 00 00 	lea    0x204c(%esp),%edx
 8049ae2:	8d 44 24 40          	lea    0x40(%esp),%eax
 8049ae6:	e8 eb f8 ff ff       	call   80493d6 <rio_readlineb>
 8049aeb:	85 c0                	test   %eax,%eax
 8049aed:	7f 7b                	jg     8049b6a <submitr+0x6c0>
 8049aef:	8b 44 24 14          	mov    0x14(%esp),%eax
 8049af3:	c7 00 45 72 72 6f    	movl   $0x6f727245,(%eax)
 8049af9:	c7 40 04 72 3a 20 43 	movl   $0x43203a72,0x4(%eax)
 8049b00:	c7 40 08 6c 69 65 6e 	movl   $0x6e65696c,0x8(%eax)
 8049b07:	c7 40 0c 74 20 75 6e 	movl   $0x6e752074,0xc(%eax)
 8049b0e:	c7 40 10 61 62 6c 65 	movl   $0x656c6261,0x10(%eax)
 8049b15:	c7 40 14 20 74 6f 20 	movl   $0x206f7420,0x14(%eax)
 8049b1c:	c7 40 18 72 65 61 64 	movl   $0x64616572,0x18(%eax)
 8049b23:	c7 40 1c 20 73 74 61 	movl   $0x61747320,0x1c(%eax)
 8049b2a:	c7 40 20 74 75 73 20 	movl   $0x20737574,0x20(%eax)
 8049b31:	c7 40 24 6d 65 73 73 	movl   $0x7373656d,0x24(%eax)
 8049b38:	c7 40 28 61 67 65 20 	movl   $0x20656761,0x28(%eax)
 8049b3f:	c7 40 2c 66 72 6f 6d 	movl   $0x6d6f7266,0x2c(%eax)
 8049b46:	c7 40 30 20 73 65 72 	movl   $0x72657320,0x30(%eax)
 8049b4d:	c7 40 34 76 65 72 00 	movl   $0x726576,0x34(%eax)
 8049b54:	83 ec 0c             	sub    $0xc,%esp
 8049b57:	ff 74 24 10          	pushl  0x10(%esp)
 8049b5b:	e8 40 ed ff ff       	call   80488a0 <close@plt>
 8049b60:	83 c4 10             	add    $0x10,%esp
 8049b63:	b8 ff ff ff ff       	mov    $0xffffffff,%eax
 8049b68:	eb 4d                	jmp    8049bb7 <submitr+0x70d>
 8049b6a:	83 ec 08             	sub    $0x8,%esp
 8049b6d:	8d 84 24 54 20 00 00 	lea    0x2054(%esp),%eax
 8049b74:	50                   	push   %eax
 8049b75:	8b 7c 24 20          	mov    0x20(%esp),%edi
 8049b79:	57                   	push   %edi
 8049b7a:	e8 21 ec ff ff       	call   80487a0 <strcpy@plt>
 8049b7f:	83 c4 04             	add    $0x4,%esp
 8049b82:	ff 74 24 10          	pushl  0x10(%esp)
 8049b86:	e8 15 ed ff ff       	call   80488a0 <close@plt>
 8049b8b:	0f b6 17             	movzbl (%edi),%edx
 8049b8e:	b8 4f 00 00 00       	mov    $0x4f,%eax
 8049b93:	83 c4 10             	add    $0x10,%esp
 8049b96:	29 d0                	sub    %edx,%eax
 8049b98:	75 13                	jne    8049bad <submitr+0x703>
 8049b9a:	0f b6 57 01          	movzbl 0x1(%edi),%edx
 8049b9e:	b8 4b 00 00 00       	mov    $0x4b,%eax
 8049ba3:	29 d0                	sub    %edx,%eax
 8049ba5:	75 06                	jne    8049bad <submitr+0x703>
 8049ba7:	0f b6 47 02          	movzbl 0x2(%edi),%eax
 8049bab:	f7 d8                	neg    %eax
 8049bad:	85 c0                	test   %eax,%eax
 8049baf:	0f 95 c0             	setne  %al
 8049bb2:	0f b6 c0             	movzbl %al,%eax
 8049bb5:	f7 d8                	neg    %eax
 8049bb7:	8b bc 24 4c a0 00 00 	mov    0xa04c(%esp),%edi
 8049bbe:	65 33 3d 14 00 00 00 	xor    %gs:0x14,%edi
 8049bc5:	0f 84 b0 00 00 00    	je     8049c7b <submitr+0x7d1>
 8049bcb:	e9 a6 00 00 00       	jmp    8049c76 <submitr+0x7cc>
 8049bd0:	a1 f4 a3 04 08       	mov    0x804a3f4,%eax
 8049bd5:	8b 7c 24 14          	mov    0x14(%esp),%edi
 8049bd9:	89 07                	mov    %eax,(%edi)
 8049bdb:	a1 33 a4 04 08       	mov    0x804a433,%eax
 8049be0:	89 47 3f             	mov    %eax,0x3f(%edi)
 8049be3:	89 f8                	mov    %edi,%eax
 8049be5:	83 c7 04             	add    $0x4,%edi
 8049be8:	83 e7 fc             	and    $0xfffffffc,%edi
 8049beb:	29 f8                	sub    %edi,%eax
 8049bed:	be f4 a3 04 08       	mov    $0x804a3f4,%esi
 8049bf2:	29 c6                	sub    %eax,%esi
 8049bf4:	83 c0 43             	add    $0x43,%eax
 8049bf7:	c1 e8 02             	shr    $0x2,%eax
 8049bfa:	89 c1                	mov    %eax,%ecx
 8049bfc:	f3 a5                	rep movsl %ds:(%esi),%es:(%edi)
 8049bfe:	83 ec 0c             	sub    $0xc,%esp
 8049c01:	ff 74 24 10          	pushl  0x10(%esp)
 8049c05:	e8 96 ec ff ff       	call   80488a0 <close@plt>
 8049c0a:	83 c4 10             	add    $0x10,%esp
 8049c0d:	b8 ff ff ff ff       	mov    $0xffffffff,%eax
 8049c12:	eb a3                	jmp    8049bb7 <submitr+0x70d>
 8049c14:	83 ec 0c             	sub    $0xc,%esp
 8049c17:	8d 84 24 58 40 00 00 	lea    0x4058(%esp),%eax
 8049c1e:	50                   	push   %eax
 8049c1f:	ff 74 24 20          	pushl  0x20(%esp)
 8049c23:	ff 74 24 2c          	pushl  0x2c(%esp)
 8049c27:	ff 74 24 24          	pushl  0x24(%esp)
 8049c2b:	ff 74 24 24          	pushl  0x24(%esp)
 8049c2f:	68 38 a4 04 08       	push   $0x804a438
 8049c34:	68 00 20 00 00       	push   $0x2000
 8049c39:	6a 01                	push   $0x1
 8049c3b:	8d bc 24 78 20 00 00 	lea    0x2078(%esp),%edi
 8049c42:	57                   	push   %edi
 8049c43:	e8 78 ec ff ff       	call   80488c0 <__sprintf_chk@plt>
 8049c48:	b8 00 00 00 00       	mov    $0x0,%eax
 8049c4d:	b9 ff ff ff ff       	mov    $0xffffffff,%ecx
 8049c52:	f2 ae                	repnz scas %es:(%edi),%al
 8049c54:	f7 d1                	not    %ecx
 8049c56:	8d 79 ff             	lea    -0x1(%ecx),%edi
 8049c59:	83 c4 30             	add    $0x30,%esp
 8049c5c:	89 fb                	mov    %edi,%ebx
 8049c5e:	8d b4 24 4c 20 00 00 	lea    0x204c(%esp),%esi
 8049c65:	8b 6c 24 04          	mov    0x4(%esp),%ebp
 8049c69:	85 ff                	test   %edi,%edi
 8049c6b:	0f 85 f9 fb ff ff    	jne    804986a <submitr+0x3c0>
 8049c71:	e9 88 fc ff ff       	jmp    80498fe <submitr+0x454>
 8049c76:	e8 15 eb ff ff       	call   8048790 <__stack_chk_fail@plt>
 8049c7b:	81 c4 5c a0 00 00    	add    $0xa05c,%esp
 8049c81:	5b                   	pop    %ebx
 8049c82:	5e                   	pop    %esi
 8049c83:	5f                   	pop    %edi
 8049c84:	5d                   	pop    %ebp
 8049c85:	c3                   	ret    

08049c86 <init_timeout>:
 8049c86:	53                   	push   %ebx
 8049c87:	83 ec 08             	sub    $0x8,%esp
 8049c8a:	8b 5c 24 10          	mov    0x10(%esp),%ebx
 8049c8e:	85 db                	test   %ebx,%ebx
 8049c90:	74 24                	je     8049cb6 <init_timeout+0x30>
 8049c92:	83 ec 08             	sub    $0x8,%esp
 8049c95:	68 b3 93 04 08       	push   $0x80493b3
 8049c9a:	6a 0e                	push   $0xe
 8049c9c:	e8 bf ea ff ff       	call   8048760 <signal@plt>
 8049ca1:	85 db                	test   %ebx,%ebx
 8049ca3:	b8 00 00 00 00       	mov    $0x0,%eax
 8049ca8:	0f 48 d8             	cmovs  %eax,%ebx
 8049cab:	89 1c 24             	mov    %ebx,(%esp)
 8049cae:	e8 cd ea ff ff       	call   8048780 <alarm@plt>
 8049cb3:	83 c4 10             	add    $0x10,%esp
 8049cb6:	83 c4 08             	add    $0x8,%esp
 8049cb9:	5b                   	pop    %ebx
 8049cba:	c3                   	ret    

08049cbb <init_driver>:
 8049cbb:	57                   	push   %edi
 8049cbc:	56                   	push   %esi
 8049cbd:	53                   	push   %ebx
 8049cbe:	83 ec 28             	sub    $0x28,%esp
 8049cc1:	8b 74 24 38          	mov    0x38(%esp),%esi
 8049cc5:	65 a1 14 00 00 00    	mov    %gs:0x14,%eax
 8049ccb:	89 44 24 24          	mov    %eax,0x24(%esp)
 8049ccf:	31 c0                	xor    %eax,%eax
 8049cd1:	6a 01                	push   $0x1
 8049cd3:	6a 0d                	push   $0xd
 8049cd5:	e8 86 ea ff ff       	call   8048760 <signal@plt>
 8049cda:	83 c4 08             	add    $0x8,%esp
 8049cdd:	6a 01                	push   $0x1
 8049cdf:	6a 1d                	push   $0x1d
 8049ce1:	e8 7a ea ff ff       	call   8048760 <signal@plt>
 8049ce6:	83 c4 08             	add    $0x8,%esp
 8049ce9:	6a 01                	push   $0x1
 8049ceb:	6a 1d                	push   $0x1d
 8049ced:	e8 6e ea ff ff       	call   8048760 <signal@plt>
 8049cf2:	83 c4 0c             	add    $0xc,%esp
 8049cf5:	6a 00                	push   $0x0
 8049cf7:	6a 01                	push   $0x1
 8049cf9:	6a 02                	push   $0x2
 8049cfb:	e8 50 eb ff ff       	call   8048850 <socket@plt>
 8049d00:	83 c4 10             	add    $0x10,%esp
 8049d03:	85 c0                	test   %eax,%eax
 8049d05:	79 4e                	jns    8049d55 <init_driver+0x9a>
 8049d07:	c7 06 45 72 72 6f    	movl   $0x6f727245,(%esi)
 8049d0d:	c7 46 04 72 3a 20 43 	movl   $0x43203a72,0x4(%esi)
 8049d14:	c7 46 08 6c 69 65 6e 	movl   $0x6e65696c,0x8(%esi)
 8049d1b:	c7 46 0c 74 20 75 6e 	movl   $0x6e752074,0xc(%esi)
 8049d22:	c7 46 10 61 62 6c 65 	movl   $0x656c6261,0x10(%esi)
 8049d29:	c7 46 14 20 74 6f 20 	movl   $0x206f7420,0x14(%esi)
 8049d30:	c7 46 18 63 72 65 61 	movl   $0x61657263,0x18(%esi)
 8049d37:	c7 46 1c 74 65 20 73 	movl   $0x73206574,0x1c(%esi)
 8049d3e:	c7 46 20 6f 63 6b 65 	movl   $0x656b636f,0x20(%esi)
 8049d45:	66 c7 46 24 74 00    	movw   $0x74,0x24(%esi)
 8049d4b:	b8 ff ff ff ff       	mov    $0xffffffff,%eax
 8049d50:	e9 1f 01 00 00       	jmp    8049e74 <init_driver+0x1b9>
 8049d55:	89 c3                	mov    %eax,%ebx
 8049d57:	83 ec 0c             	sub    $0xc,%esp
 8049d5a:	68 d0 a4 04 08       	push   $0x804a4d0
 8049d5f:	e8 0c eb ff ff       	call   8048870 <gethostbyname@plt>
 8049d64:	83 c4 10             	add    $0x10,%esp
 8049d67:	85 c0                	test   %eax,%eax
 8049d69:	75 6c                	jne    8049dd7 <init_driver+0x11c>
 8049d6b:	c7 06 45 72 72 6f    	movl   $0x6f727245,(%esi)
 8049d71:	c7 46 04 72 3a 20 44 	movl   $0x44203a72,0x4(%esi)
 8049d78:	c7 46 08 4e 53 20 69 	movl   $0x6920534e,0x8(%esi)
 8049d7f:	c7 46 0c 73 20 75 6e 	movl   $0x6e752073,0xc(%esi)
 8049d86:	c7 46 10 61 62 6c 65 	movl   $0x656c6261,0x10(%esi)
 8049d8d:	c7 46 14 20 74 6f 20 	movl   $0x206f7420,0x14(%esi)
 8049d94:	c7 46 18 72 65 73 6f 	movl   $0x6f736572,0x18(%esi)
 8049d9b:	c7 46 1c 6c 76 65 20 	movl   $0x2065766c,0x1c(%esi)
 8049da2:	c7 46 20 73 65 72 76 	movl   $0x76726573,0x20(%esi)
 8049da9:	c7 46 24 65 72 20 61 	movl   $0x61207265,0x24(%esi)
 8049db0:	c7 46 28 64 64 72 65 	movl   $0x65726464,0x28(%esi)
 8049db7:	66 c7 46 2c 73 73    	movw   $0x7373,0x2c(%esi)
 8049dbd:	c6 46 2e 00          	movb   $0x0,0x2e(%esi)
 8049dc1:	83 ec 0c             	sub    $0xc,%esp
 8049dc4:	53                   	push   %ebx
 8049dc5:	e8 d6 ea ff ff       	call   80488a0 <close@plt>
 8049dca:	83 c4 10             	add    $0x10,%esp
 8049dcd:	b8 ff ff ff ff       	mov    $0xffffffff,%eax
 8049dd2:	e9 9d 00 00 00       	jmp    8049e74 <init_driver+0x1b9>
 8049dd7:	8d 7c 24 0c          	lea    0xc(%esp),%edi
 8049ddb:	c7 44 24 0c 00 00 00 	movl   $0x0,0xc(%esp)
 8049de2:	00 
 8049de3:	c7 44 24 10 00 00 00 	movl   $0x0,0x10(%esp)
 8049dea:	00 
 8049deb:	c7 44 24 14 00 00 00 	movl   $0x0,0x14(%esp)
 8049df2:	00 
 8049df3:	c7 44 24 18 00 00 00 	movl   $0x0,0x18(%esp)
 8049dfa:	00 
 8049dfb:	66 c7 44 24 0c 02 00 	movw   $0x2,0xc(%esp)
 8049e02:	6a 0c                	push   $0xc
 8049e04:	ff 70 0c             	pushl  0xc(%eax)
 8049e07:	8b 40 10             	mov    0x10(%eax),%eax
 8049e0a:	ff 30                	pushl  (%eax)
 8049e0c:	8d 44 24 1c          	lea    0x1c(%esp),%eax
 8049e10:	50                   	push   %eax
 8049e11:	e8 ba e9 ff ff       	call   80487d0 <__memmove_chk@plt>
 8049e16:	66 c7 44 24 1e 3b 6e 	movw   $0x6e3b,0x1e(%esp)
 8049e1d:	83 c4 0c             	add    $0xc,%esp
 8049e20:	6a 10                	push   $0x10
 8049e22:	57                   	push   %edi
 8049e23:	53                   	push   %ebx
 8049e24:	e8 67 ea ff ff       	call   8048890 <connect@plt>
 8049e29:	83 c4 10             	add    $0x10,%esp
 8049e2c:	85 c0                	test   %eax,%eax
 8049e2e:	79 2a                	jns    8049e5a <init_driver+0x19f>
 8049e30:	83 ec 0c             	sub    $0xc,%esp
 8049e33:	68 d0 a4 04 08       	push   $0x804a4d0
 8049e38:	68 90 a4 04 08       	push   $0x804a490
 8049e3d:	6a ff                	push   $0xffffffff
 8049e3f:	6a 01                	push   $0x1
 8049e41:	56                   	push   %esi
 8049e42:	e8 79 ea ff ff       	call   80488c0 <__sprintf_chk@plt>
 8049e47:	83 c4 14             	add    $0x14,%esp
 8049e4a:	53                   	push   %ebx
 8049e4b:	e8 50 ea ff ff       	call   80488a0 <close@plt>
 8049e50:	83 c4 10             	add    $0x10,%esp
 8049e53:	b8 ff ff ff ff       	mov    $0xffffffff,%eax
 8049e58:	eb 1a                	jmp    8049e74 <init_driver+0x1b9>
 8049e5a:	83 ec 0c             	sub    $0xc,%esp
 8049e5d:	53                   	push   %ebx
 8049e5e:	e8 3d ea ff ff       	call   80488a0 <close@plt>
 8049e63:	66 c7 06 4f 4b       	movw   $0x4b4f,(%esi)
 8049e68:	c6 46 02 00          	movb   $0x0,0x2(%esi)
 8049e6c:	83 c4 10             	add    $0x10,%esp
 8049e6f:	b8 00 00 00 00       	mov    $0x0,%eax
 8049e74:	8b 54 24 1c          	mov    0x1c(%esp),%edx
 8049e78:	65 33 15 14 00 00 00 	xor    %gs:0x14,%edx
 8049e7f:	74 05                	je     8049e86 <init_driver+0x1cb>
 8049e81:	e8 0a e9 ff ff       	call   8048790 <__stack_chk_fail@plt>
 8049e86:	83 c4 20             	add    $0x20,%esp
 8049e89:	5b                   	pop    %ebx
 8049e8a:	5e                   	pop    %esi
 8049e8b:	5f                   	pop    %edi
 8049e8c:	c3                   	ret    

08049e8d <driver_post>:
 8049e8d:	53                   	push   %ebx
 8049e8e:	83 ec 08             	sub    $0x8,%esp
 8049e91:	8b 44 24 10          	mov    0x10(%esp),%eax
 8049e95:	8b 5c 24 20          	mov    0x20(%esp),%ebx
 8049e99:	83 7c 24 1c 00       	cmpl   $0x0,0x1c(%esp)
 8049e9e:	74 26                	je     8049ec6 <driver_post+0x39>
 8049ea0:	83 ec 04             	sub    $0x4,%esp
 8049ea3:	ff 74 24 1c          	pushl  0x1c(%esp)
 8049ea7:	68 e8 a4 04 08       	push   $0x804a4e8
 8049eac:	6a 01                	push   $0x1
 8049eae:	e8 8d e9 ff ff       	call   8048840 <__printf_chk@plt>
 8049eb3:	66 c7 03 4f 4b       	movw   $0x4b4f,(%ebx)
 8049eb8:	c6 43 02 00          	movb   $0x0,0x2(%ebx)
 8049ebc:	83 c4 10             	add    $0x10,%esp
 8049ebf:	b8 00 00 00 00       	mov    $0x0,%eax
 8049ec4:	eb 3f                	jmp    8049f05 <driver_post+0x78>
 8049ec6:	85 c0                	test   %eax,%eax
 8049ec8:	74 2d                	je     8049ef7 <driver_post+0x6a>
 8049eca:	80 38 00             	cmpb   $0x0,(%eax)
 8049ecd:	74 28                	je     8049ef7 <driver_post+0x6a>
 8049ecf:	53                   	push   %ebx
 8049ed0:	ff 74 24 1c          	pushl  0x1c(%esp)
 8049ed4:	68 ff a4 04 08       	push   $0x804a4ff
 8049ed9:	ff 74 24 20          	pushl  0x20(%esp)
 8049edd:	50                   	push   %eax
 8049ede:	68 07 a5 04 08       	push   $0x804a507
 8049ee3:	68 6e 3b 00 00       	push   $0x3b6e
 8049ee8:	68 d0 a4 04 08       	push   $0x804a4d0
 8049eed:	e8 b8 f5 ff ff       	call   80494aa <submitr>
 8049ef2:	83 c4 20             	add    $0x20,%esp
 8049ef5:	eb 0e                	jmp    8049f05 <driver_post+0x78>
 8049ef7:	66 c7 03 4f 4b       	movw   $0x4b4f,(%ebx)
 8049efc:	c6 43 02 00          	movb   $0x0,0x2(%ebx)
 8049f00:	b8 00 00 00 00       	mov    $0x0,%eax
 8049f05:	83 c4 08             	add    $0x8,%esp
 8049f08:	5b                   	pop    %ebx
 8049f09:	c3                   	ret    
 8049f0a:	66 90                	xchg   %ax,%ax
 8049f0c:	66 90                	xchg   %ax,%ax
 8049f0e:	66 90                	xchg   %ax,%ax

08049f10 <__libc_csu_init>:
 8049f10:	55                   	push   %ebp
 8049f11:	57                   	push   %edi
 8049f12:	56                   	push   %esi
 8049f13:	53                   	push   %ebx
 8049f14:	e8 f7 e9 ff ff       	call   8048910 <__x86.get_pc_thunk.bx>
 8049f19:	81 c3 e7 20 00 00    	add    $0x20e7,%ebx
 8049f1f:	83 ec 0c             	sub    $0xc,%esp
 8049f22:	8b 6c 24 20          	mov    0x20(%esp),%ebp
 8049f26:	8d b3 0c ff ff ff    	lea    -0xf4(%ebx),%esi
 8049f2c:	e8 c3 e7 ff ff       	call   80486f4 <_init>
 8049f31:	8d 83 08 ff ff ff    	lea    -0xf8(%ebx),%eax
 8049f37:	29 c6                	sub    %eax,%esi
 8049f39:	c1 fe 02             	sar    $0x2,%esi
 8049f3c:	85 f6                	test   %esi,%esi
 8049f3e:	74 25                	je     8049f65 <__libc_csu_init+0x55>
 8049f40:	31 ff                	xor    %edi,%edi
 8049f42:	8d b6 00 00 00 00    	lea    0x0(%esi),%esi
 8049f48:	83 ec 04             	sub    $0x4,%esp
 8049f4b:	ff 74 24 2c          	pushl  0x2c(%esp)
 8049f4f:	ff 74 24 2c          	pushl  0x2c(%esp)
 8049f53:	55                   	push   %ebp
 8049f54:	ff 94 bb 08 ff ff ff 	call   *-0xf8(%ebx,%edi,4)
 8049f5b:	83 c7 01             	add    $0x1,%edi
 8049f5e:	83 c4 10             	add    $0x10,%esp
 8049f61:	39 f7                	cmp    %esi,%edi
 8049f63:	75 e3                	jne    8049f48 <__libc_csu_init+0x38>
 8049f65:	83 c4 0c             	add    $0xc,%esp
 8049f68:	5b                   	pop    %ebx
 8049f69:	5e                   	pop    %esi
 8049f6a:	5f                   	pop    %edi
 8049f6b:	5d                   	pop    %ebp
 8049f6c:	c3                   	ret    
 8049f6d:	8d 76 00             	lea    0x0(%esi),%esi

08049f70 <__libc_csu_fini>:
 8049f70:	f3 c3                	repz ret 

Disassembly of section .fini:

08049f74 <_fini>:
 8049f74:	53                   	push   %ebx
 8049f75:	83 ec 08             	sub    $0x8,%esp
 8049f78:	e8 93 e9 ff ff       	call   8048910 <__x86.get_pc_thunk.bx>
 8049f7d:	81 c3 83 20 00 00    	add    $0x2083,%ebx
 8049f83:	83 c4 08             	add    $0x8,%esp
 8049f86:	5b                   	pop    %ebx
 8049f87:	c3                   	ret    
